
outdoor.elf:     file format elf32-avr

Sections:
Idx Name          Size      VMA       LMA       File off  Algn
  0 .text         00000d54  00000000  00000000  00000074  2**1
                  CONTENTS, ALLOC, LOAD, READONLY, CODE
  1 .data         00000012  00800060  00000d54  00000dc8  2**0
                  CONTENTS, ALLOC, LOAD, DATA
  2 .stab         00000b34  00000000  00000000  00000ddc  2**2
                  CONTENTS, READONLY, DEBUGGING
  3 .stabstr      0000013f  00000000  00000000  00001910  2**0
                  CONTENTS, READONLY, DEBUGGING
  4 .comment      00000011  00000000  00000000  00001a4f  2**0
                  CONTENTS, READONLY

Disassembly of section .text:

00000000 <__vectors>:
   0:	12 c0       	rjmp	.+36     	; 0x26 <__ctors_end>
   2:	24 c0       	rjmp	.+72     	; 0x4c <__bad_interrupt>
   4:	23 c0       	rjmp	.+70     	; 0x4c <__bad_interrupt>
   6:	22 c0       	rjmp	.+68     	; 0x4c <__bad_interrupt>
   8:	21 c0       	rjmp	.+66     	; 0x4c <__bad_interrupt>
   a:	20 c0       	rjmp	.+64     	; 0x4c <__bad_interrupt>
   c:	1f c0       	rjmp	.+62     	; 0x4c <__bad_interrupt>
   e:	1e c0       	rjmp	.+60     	; 0x4c <__bad_interrupt>
  10:	1d c0       	rjmp	.+58     	; 0x4c <__bad_interrupt>
  12:	1c c0       	rjmp	.+56     	; 0x4c <__bad_interrupt>
  14:	1b c0       	rjmp	.+54     	; 0x4c <__bad_interrupt>
  16:	1a c0       	rjmp	.+52     	; 0x4c <__bad_interrupt>
  18:	19 c0       	rjmp	.+50     	; 0x4c <__bad_interrupt>
  1a:	18 c0       	rjmp	.+48     	; 0x4c <__bad_interrupt>
  1c:	17 c0       	rjmp	.+46     	; 0x4c <__bad_interrupt>
  1e:	16 c0       	rjmp	.+44     	; 0x4c <__bad_interrupt>
  20:	15 c0       	rjmp	.+42     	; 0x4c <__bad_interrupt>
  22:	14 c0       	rjmp	.+40     	; 0x4c <__bad_interrupt>
  24:	13 c0       	rjmp	.+38     	; 0x4c <__bad_interrupt>

00000026 <__ctors_end>:
  26:	11 24       	eor	r1, r1
  28:	1f be       	out	0x3f, r1	; 63
  2a:	cf e5       	ldi	r28, 0x5F	; 95
  2c:	d4 e0       	ldi	r29, 0x04	; 4
  2e:	de bf       	out	0x3e, r29	; 62
  30:	cd bf       	out	0x3d, r28	; 61

00000032 <__do_copy_data>:
  32:	10 e0       	ldi	r17, 0x00	; 0
  34:	a0 e6       	ldi	r26, 0x60	; 96
  36:	b0 e0       	ldi	r27, 0x00	; 0
  38:	e4 e5       	ldi	r30, 0x54	; 84
  3a:	fd e0       	ldi	r31, 0x0D	; 13
  3c:	02 c0       	rjmp	.+4      	; 0x42 <__SREG__+0x3>
  3e:	05 90       	lpm	r0, Z+
  40:	0d 92       	st	X+, r0
  42:	a2 37       	cpi	r26, 0x72	; 114
  44:	b1 07       	cpc	r27, r17
  46:	d9 f7       	brne	.-10     	; 0x3e <__SP_H__>
  48:	31 d5       	rcall	.+2658   	; 0xaac <main>
  4a:	82 c6       	rjmp	.+3332   	; 0xd50 <_exit>

0000004c <__bad_interrupt>:
  4c:	d9 cf       	rjmp	.-78     	; 0x0 <__vectors>

0000004e <crc8>:
  4e:	fc 01       	movw	r30, r24
  50:	68 0f       	add	r22, r24
  52:	79 1f       	adc	r23, r25
  54:	80 e0       	ldi	r24, 0x00	; 0
  56:	48 e1       	ldi	r20, 0x18	; 24
  58:	0f c0       	rjmp	.+30     	; 0x78 <crc8+0x2a>
  5a:	21 91       	ld	r18, Z+
  5c:	98 e0       	ldi	r25, 0x08	; 8
  5e:	32 2f       	mov	r19, r18
  60:	38 27       	eor	r19, r24
  62:	53 2f       	mov	r21, r19
  64:	51 70       	andi	r21, 0x01	; 1
  66:	30 fd       	sbrc	r19, 0
  68:	84 27       	eor	r24, r20
  6a:	86 95       	lsr	r24
  6c:	51 30       	cpi	r21, 0x01	; 1
  6e:	09 f4       	brne	.+2      	; 0x72 <crc8+0x24>
  70:	80 68       	ori	r24, 0x80	; 128
  72:	26 95       	lsr	r18
  74:	91 50       	subi	r25, 0x01	; 1
  76:	99 f7       	brne	.-26     	; 0x5e <crc8+0x10>
  78:	e6 17       	cp	r30, r22
  7a:	f7 07       	cpc	r31, r23
  7c:	71 f7       	brne	.-36     	; 0x5a <crc8+0xc>
  7e:	08 95       	ret

00000080 <DS18X20_raw_to_decicelsius>:
  80:	fb 01       	movw	r30, r22
  82:	31 81       	ldd	r19, Z+1	; 0x01
  84:	20 e0       	ldi	r18, 0x00	; 0
  86:	90 81       	ld	r25, Z
  88:	29 2b       	or	r18, r25
  8a:	80 31       	cpi	r24, 0x10	; 16
  8c:	71 f4       	brne	.+28     	; 0xaa <DS18X20_raw_to_decicelsius+0x2a>
  8e:	a9 01       	movw	r20, r18
  90:	4e 7f       	andi	r20, 0xFE	; 254
  92:	63 e0       	ldi	r22, 0x03	; 3
  94:	44 0f       	add	r20, r20
  96:	55 1f       	adc	r21, r21
  98:	6a 95       	dec	r22
  9a:	e1 f7       	brne	.-8      	; 0x94 <DS18X20_raw_to_decicelsius+0x14>
  9c:	96 81       	ldd	r25, Z+6	; 0x06
  9e:	2c e0       	ldi	r18, 0x0C	; 12
  a0:	30 e0       	ldi	r19, 0x00	; 0
  a2:	29 1b       	sub	r18, r25
  a4:	31 09       	sbc	r19, r1
  a6:	24 0f       	add	r18, r20
  a8:	35 1f       	adc	r19, r21
  aa:	37 ff       	sbrs	r19, 7
  ac:	05 c0       	rjmp	.+10     	; 0xb8 <DS18X20_raw_to_decicelsius+0x38>
  ae:	31 95       	neg	r19
  b0:	21 95       	neg	r18
  b2:	31 09       	sbc	r19, r1
  b4:	a1 e0       	ldi	r26, 0x01	; 1
  b6:	01 c0       	rjmp	.+2      	; 0xba <DS18X20_raw_to_decicelsius+0x3a>
  b8:	a0 e0       	ldi	r26, 0x00	; 0
  ba:	88 32       	cpi	r24, 0x28	; 40
  bc:	11 f0       	breq	.+4      	; 0xc2 <DS18X20_raw_to_decicelsius+0x42>
  be:	82 32       	cpi	r24, 0x22	; 34
  c0:	69 f4       	brne	.+26     	; 0xdc <DS18X20_raw_to_decicelsius+0x5c>
  c2:	84 81       	ldd	r24, Z+4	; 0x04
  c4:	80 76       	andi	r24, 0x60	; 96
  c6:	80 32       	cpi	r24, 0x20	; 32
  c8:	31 f0       	breq	.+12     	; 0xd6 <DS18X20_raw_to_decicelsius+0x56>
  ca:	80 34       	cpi	r24, 0x40	; 64
  cc:	31 f0       	breq	.+12     	; 0xda <DS18X20_raw_to_decicelsius+0x5a>
  ce:	81 11       	cpse	r24, r1
  d0:	05 c0       	rjmp	.+10     	; 0xdc <DS18X20_raw_to_decicelsius+0x5c>
  d2:	28 7f       	andi	r18, 0xF8	; 248
  d4:	03 c0       	rjmp	.+6      	; 0xdc <DS18X20_raw_to_decicelsius+0x5c>
  d6:	2c 7f       	andi	r18, 0xFC	; 252
  d8:	01 c0       	rjmp	.+2      	; 0xdc <DS18X20_raw_to_decicelsius+0x5c>
  da:	2e 7f       	andi	r18, 0xFE	; 254
  dc:	c9 01       	movw	r24, r18
  de:	44 e0       	ldi	r20, 0x04	; 4
  e0:	96 95       	lsr	r25
  e2:	87 95       	ror	r24
  e4:	4a 95       	dec	r20
  e6:	e1 f7       	brne	.-8      	; 0xe0 <DS18X20_raw_to_decicelsius+0x60>
  e8:	6a e0       	ldi	r22, 0x0A	; 10
  ea:	68 9f       	mul	r22, r24
  ec:	a0 01       	movw	r20, r0
  ee:	69 9f       	mul	r22, r25
  f0:	50 0d       	add	r21, r0
  f2:	11 24       	eor	r1, r1
  f4:	2f 70       	andi	r18, 0x0F	; 15
  f6:	33 27       	eor	r19, r19
  f8:	60 e8       	ldi	r22, 0x80	; 128
  fa:	72 e0       	ldi	r23, 0x02	; 2
  fc:	26 9f       	mul	r18, r22
  fe:	c0 01       	movw	r24, r0
 100:	27 9f       	mul	r18, r23
 102:	90 0d       	add	r25, r0
 104:	36 9f       	mul	r19, r22
 106:	90 0d       	add	r25, r0
 108:	11 24       	eor	r1, r1
 10a:	a1 11       	cpse	r26, r1
 10c:	01 c0       	rjmp	.+2      	; 0x110 <DS18X20_raw_to_decicelsius+0x90>
 10e:	9e 5f       	subi	r25, 0xFE	; 254
 110:	9c 01       	movw	r18, r24
 112:	23 2f       	mov	r18, r19
 114:	33 27       	eor	r19, r19
 116:	26 95       	lsr	r18
 118:	26 95       	lsr	r18
 11a:	24 0f       	add	r18, r20
 11c:	35 1f       	adc	r19, r21
 11e:	aa 23       	and	r26, r26
 120:	19 f0       	breq	.+6      	; 0x128 <DS18X20_raw_to_decicelsius+0xa8>
 122:	31 95       	neg	r19
 124:	21 95       	neg	r18
 126:	31 09       	sbc	r19, r1
 128:	c9 01       	movw	r24, r18
 12a:	8a 5d       	subi	r24, 0xDA	; 218
 12c:	9d 4f       	sbci	r25, 0xFD	; 253
 12e:	89 30       	cpi	r24, 0x09	; 9
 130:	97 40       	sbci	r25, 0x07	; 7
 132:	10 f0       	brcs	.+4      	; 0x138 <DS18X20_raw_to_decicelsius+0xb8>
 134:	20 ed       	ldi	r18, 0xD0	; 208
 136:	37 e0       	ldi	r19, 0x07	; 7
 138:	c9 01       	movw	r24, r18
 13a:	08 95       	ret

0000013c <DS18X20_raw_to_maxres>:
 13c:	0f 93       	push	r16
 13e:	1f 93       	push	r17
 140:	cf 93       	push	r28
 142:	fb 01       	movw	r30, r22
 144:	51 81       	ldd	r21, Z+1	; 0x01
 146:	40 e0       	ldi	r20, 0x00	; 0
 148:	90 81       	ld	r25, Z
 14a:	49 2b       	or	r20, r25
 14c:	80 31       	cpi	r24, 0x10	; 16
 14e:	71 f4       	brne	.+28     	; 0x16c <DS18X20_raw_to_maxres+0x30>
 150:	9a 01       	movw	r18, r20
 152:	2e 7f       	andi	r18, 0xFE	; 254
 154:	a3 e0       	ldi	r26, 0x03	; 3
 156:	22 0f       	add	r18, r18
 158:	33 1f       	adc	r19, r19
 15a:	aa 95       	dec	r26
 15c:	e1 f7       	brne	.-8      	; 0x156 <DS18X20_raw_to_maxres+0x1a>
 15e:	96 81       	ldd	r25, Z+6	; 0x06
 160:	4c e0       	ldi	r20, 0x0C	; 12
 162:	50 e0       	ldi	r21, 0x00	; 0
 164:	49 1b       	sub	r20, r25
 166:	51 09       	sbc	r21, r1
 168:	42 0f       	add	r20, r18
 16a:	53 1f       	adc	r21, r19
 16c:	57 ff       	sbrs	r21, 7
 16e:	05 c0       	rjmp	.+10     	; 0x17a <DS18X20_raw_to_maxres+0x3e>
 170:	51 95       	neg	r21
 172:	41 95       	neg	r20
 174:	51 09       	sbc	r21, r1
 176:	c1 e0       	ldi	r28, 0x01	; 1
 178:	01 c0       	rjmp	.+2      	; 0x17c <DS18X20_raw_to_maxres+0x40>
 17a:	c0 e0       	ldi	r28, 0x00	; 0
 17c:	88 32       	cpi	r24, 0x28	; 40
 17e:	11 f0       	breq	.+4      	; 0x184 <DS18X20_raw_to_maxres+0x48>
 180:	82 32       	cpi	r24, 0x22	; 34
 182:	69 f4       	brne	.+26     	; 0x19e <DS18X20_raw_to_maxres+0x62>
 184:	84 81       	ldd	r24, Z+4	; 0x04
 186:	80 76       	andi	r24, 0x60	; 96
 188:	80 32       	cpi	r24, 0x20	; 32
 18a:	31 f0       	breq	.+12     	; 0x198 <DS18X20_raw_to_maxres+0x5c>
 18c:	80 34       	cpi	r24, 0x40	; 64
 18e:	31 f0       	breq	.+12     	; 0x19c <DS18X20_raw_to_maxres+0x60>
 190:	81 11       	cpse	r24, r1
 192:	05 c0       	rjmp	.+10     	; 0x19e <DS18X20_raw_to_maxres+0x62>
 194:	48 7f       	andi	r20, 0xF8	; 248
 196:	03 c0       	rjmp	.+6      	; 0x19e <DS18X20_raw_to_maxres+0x62>
 198:	4c 7f       	andi	r20, 0xFC	; 252
 19a:	01 c0       	rjmp	.+2      	; 0x19e <DS18X20_raw_to_maxres+0x62>
 19c:	4e 7f       	andi	r20, 0xFE	; 254
 19e:	9a 01       	movw	r18, r20
 1a0:	74 e0       	ldi	r23, 0x04	; 4
 1a2:	36 95       	lsr	r19
 1a4:	27 95       	ror	r18
 1a6:	7a 95       	dec	r23
 1a8:	e1 f7       	brne	.-8      	; 0x1a2 <DS18X20_raw_to_maxres+0x66>
 1aa:	a0 e1       	ldi	r26, 0x10	; 16
 1ac:	b7 e2       	ldi	r27, 0x27	; 39
 1ae:	0f d5       	rcall	.+2590   	; 0xbce <__umulhisi3>
 1b0:	8b 01       	movw	r16, r22
 1b2:	9c 01       	movw	r18, r24
 1b4:	4f 70       	andi	r20, 0x0F	; 15
 1b6:	55 27       	eor	r21, r21
 1b8:	61 e7       	ldi	r22, 0x71	; 113
 1ba:	72 e0       	ldi	r23, 0x02	; 2
 1bc:	46 9f       	mul	r20, r22
 1be:	c0 01       	movw	r24, r0
 1c0:	47 9f       	mul	r20, r23
 1c2:	90 0d       	add	r25, r0
 1c4:	56 9f       	mul	r21, r22
 1c6:	90 0d       	add	r25, r0
 1c8:	11 24       	eor	r1, r1
 1ca:	08 0f       	add	r16, r24
 1cc:	19 1f       	adc	r17, r25
 1ce:	21 1d       	adc	r18, r1
 1d0:	31 1d       	adc	r19, r1
 1d2:	cc 23       	and	r28, r28
 1d4:	39 f0       	breq	.+14     	; 0x1e4 <DS18X20_raw_to_maxres+0xa8>
 1d6:	30 95       	com	r19
 1d8:	20 95       	com	r18
 1da:	10 95       	com	r17
 1dc:	01 95       	neg	r16
 1de:	1f 4f       	sbci	r17, 0xFF	; 255
 1e0:	2f 4f       	sbci	r18, 0xFF	; 255
 1e2:	3f 4f       	sbci	r19, 0xFF	; 255
 1e4:	b8 01       	movw	r22, r16
 1e6:	c9 01       	movw	r24, r18
 1e8:	cf 91       	pop	r28
 1ea:	1f 91       	pop	r17
 1ec:	0f 91       	pop	r16
 1ee:	08 95       	ret

000001f0 <read_scratchpad.constprop.0>:
 1f0:	ff 92       	push	r15
 1f2:	0f 93       	push	r16
 1f4:	1f 93       	push	r17
 1f6:	cf 93       	push	r28
 1f8:	df 93       	push	r29
 1fa:	06 2f       	mov	r16, r22
 1fc:	f7 2e       	mov	r15, r23
 1fe:	bc 01       	movw	r22, r24
 200:	8e eb       	ldi	r24, 0xBE	; 190
 202:	55 d3       	rcall	.+1706   	; 0x8ae <ow_command>
 204:	c0 2f       	mov	r28, r16
 206:	df 2d       	mov	r29, r15
 208:	19 e0       	ldi	r17, 0x09	; 9
 20a:	08 d3       	rcall	.+1552   	; 0x81c <ow_byte_rd>
 20c:	89 93       	st	Y+, r24
 20e:	11 50       	subi	r17, 0x01	; 1
 210:	e1 f7       	brne	.-8      	; 0x20a <read_scratchpad.constprop.0+0x1a>
 212:	69 e0       	ldi	r22, 0x09	; 9
 214:	70 e0       	ldi	r23, 0x00	; 0
 216:	80 2f       	mov	r24, r16
 218:	9f 2d       	mov	r25, r15
 21a:	19 df       	rcall	.-462    	; 0x4e <crc8>
 21c:	88 23       	and	r24, r24
 21e:	11 f0       	breq	.+4      	; 0x224 <read_scratchpad.constprop.0+0x34>
 220:	83 e0       	ldi	r24, 0x03	; 3
 222:	01 c0       	rjmp	.+2      	; 0x226 <read_scratchpad.constprop.0+0x36>
 224:	80 e0       	ldi	r24, 0x00	; 0
 226:	df 91       	pop	r29
 228:	cf 91       	pop	r28
 22a:	1f 91       	pop	r17
 22c:	0f 91       	pop	r16
 22e:	ff 90       	pop	r15
 230:	08 95       	ret

00000232 <DS18X20_find_sensor>:
 232:	0f 93       	push	r16
 234:	1f 93       	push	r17
 236:	cf 93       	push	r28
 238:	df 93       	push	r29
 23a:	ec 01       	movw	r28, r24
 23c:	8b 01       	movw	r16, r22
 23e:	b8 01       	movw	r22, r16
 240:	88 81       	ld	r24, Y
 242:	ee d2       	rcall	.+1500   	; 0x820 <ow_rom_search>
 244:	88 83       	st	Y, r24
 246:	81 50       	subi	r24, 0x01	; 1
 248:	8d 3f       	cpi	r24, 0xFD	; 253
 24a:	48 f4       	brcc	.+18     	; 0x25e <DS18X20_find_sensor+0x2c>
 24c:	f8 01       	movw	r30, r16
 24e:	80 81       	ld	r24, Z
 250:	88 32       	cpi	r24, 0x28	; 40
 252:	39 f0       	breq	.+14     	; 0x262 <DS18X20_find_sensor+0x30>
 254:	80 31       	cpi	r24, 0x10	; 16
 256:	29 f0       	breq	.+10     	; 0x262 <DS18X20_find_sensor+0x30>
 258:	82 32       	cpi	r24, 0x22	; 34
 25a:	89 f7       	brne	.-30     	; 0x23e <DS18X20_find_sensor+0xc>
 25c:	02 c0       	rjmp	.+4      	; 0x262 <DS18X20_find_sensor+0x30>
 25e:	81 e0       	ldi	r24, 0x01	; 1
 260:	01 c0       	rjmp	.+2      	; 0x264 <DS18X20_find_sensor+0x32>
 262:	80 e0       	ldi	r24, 0x00	; 0
 264:	df 91       	pop	r29
 266:	cf 91       	pop	r28
 268:	1f 91       	pop	r17
 26a:	0f 91       	pop	r16
 26c:	08 95       	ret

0000026e <DS18X20_get_power_status>:
 26e:	cf 93       	push	r28
 270:	df 93       	push	r29
 272:	ec 01       	movw	r28, r24
 274:	63 d2       	rcall	.+1222   	; 0x73c <ow_reset>
 276:	be 01       	movw	r22, r28
 278:	84 eb       	ldi	r24, 0xB4	; 180
 27a:	19 d3       	rcall	.+1586   	; 0x8ae <ow_command>
 27c:	81 e0       	ldi	r24, 0x01	; 1
 27e:	7c d2       	rcall	.+1272   	; 0x778 <ow_bit_io>
 280:	c8 2f       	mov	r28, r24
 282:	5c d2       	rcall	.+1208   	; 0x73c <ow_reset>
 284:	81 e0       	ldi	r24, 0x01	; 1
 286:	c1 11       	cpse	r28, r1
 288:	01 c0       	rjmp	.+2      	; 0x28c <DS18X20_get_power_status+0x1e>
 28a:	80 e0       	ldi	r24, 0x00	; 0
 28c:	df 91       	pop	r29
 28e:	cf 91       	pop	r28
 290:	08 95       	ret

00000292 <DS18X20_start_meas>:
 292:	1f 93       	push	r17
 294:	cf 93       	push	r28
 296:	df 93       	push	r29
 298:	00 d0       	rcall	.+0      	; 0x29a <DS18X20_start_meas+0x8>
 29a:	cd b7       	in	r28, 0x3d	; 61
 29c:	de b7       	in	r29, 0x3e	; 62
 29e:	18 2f       	mov	r17, r24
 2a0:	69 83       	std	Y+1, r22	; 0x01
 2a2:	7a 83       	std	Y+2, r23	; 0x02
 2a4:	4b d2       	rcall	.+1174   	; 0x73c <ow_reset>
 2a6:	15 d2       	rcall	.+1066   	; 0x6d2 <ow_input_pin_state>
 2a8:	69 81       	ldd	r22, Y+1	; 0x01
 2aa:	7a 81       	ldd	r23, Y+2	; 0x02
 2ac:	88 23       	and	r24, r24
 2ae:	41 f0       	breq	.+16     	; 0x2c0 <DS18X20_start_meas+0x2e>
 2b0:	84 e4       	ldi	r24, 0x44	; 68
 2b2:	11 30       	cpi	r17, 0x01	; 1
 2b4:	11 f0       	breq	.+4      	; 0x2ba <DS18X20_start_meas+0x28>
 2b6:	fd d2       	rcall	.+1530   	; 0x8b2 <ow_command_with_parasite_enable>
 2b8:	01 c0       	rjmp	.+2      	; 0x2bc <DS18X20_start_meas+0x2a>
 2ba:	f9 d2       	rcall	.+1522   	; 0x8ae <ow_command>
 2bc:	80 e0       	ldi	r24, 0x00	; 0
 2be:	01 c0       	rjmp	.+2      	; 0x2c2 <DS18X20_start_meas+0x30>
 2c0:	82 e0       	ldi	r24, 0x02	; 2
 2c2:	0f 90       	pop	r0
 2c4:	0f 90       	pop	r0
 2c6:	df 91       	pop	r29
 2c8:	cf 91       	pop	r28
 2ca:	1f 91       	pop	r17
 2cc:	08 95       	ret

000002ce <DS18X20_conversion_in_progress>:
 2ce:	81 e0       	ldi	r24, 0x01	; 1
 2d0:	53 d2       	rcall	.+1190   	; 0x778 <ow_bit_io>
 2d2:	91 e0       	ldi	r25, 0x01	; 1
 2d4:	81 11       	cpse	r24, r1
 2d6:	90 e0       	ldi	r25, 0x00	; 0
 2d8:	89 2f       	mov	r24, r25
 2da:	08 95       	ret

000002dc <DS18X20_format_from_decicelsius>:
 2dc:	bf 92       	push	r11
 2de:	cf 92       	push	r12
 2e0:	df 92       	push	r13
 2e2:	ef 92       	push	r14
 2e4:	ff 92       	push	r15
 2e6:	0f 93       	push	r16
 2e8:	1f 93       	push	r17
 2ea:	cf 93       	push	r28
 2ec:	df 93       	push	r29
 2ee:	cd b7       	in	r28, 0x3d	; 61
 2f0:	de b7       	in	r29, 0x3e	; 62
 2f2:	27 97       	sbiw	r28, 0x07	; 7
 2f4:	0f b6       	in	r0, 0x3f	; 63
 2f6:	f8 94       	cli
 2f8:	de bf       	out	0x3e, r29	; 62
 2fa:	0f be       	out	0x3f, r0	; 63
 2fc:	cd bf       	out	0x3d, r28	; 61
 2fe:	7b 01       	movw	r14, r22
 300:	47 30       	cpi	r20, 0x07	; 7
 302:	08 f4       	brcc	.+2      	; 0x306 <DS18X20_format_from_decicelsius+0x2a>
 304:	5a c0       	rjmp	.+180    	; 0x3ba <DS18X20_format_from_decicelsius+0xde>
 306:	89 31       	cpi	r24, 0x19	; 25
 308:	2c ef       	ldi	r18, 0xFC	; 252
 30a:	92 07       	cpc	r25, r18
 30c:	0c f4       	brge	.+2      	; 0x310 <DS18X20_format_from_decicelsius+0x34>
 30e:	55 c0       	rjmp	.+170    	; 0x3ba <DS18X20_format_from_decicelsius+0xde>
 310:	80 31       	cpi	r24, 0x10	; 16
 312:	e7 e2       	ldi	r30, 0x27	; 39
 314:	9e 07       	cpc	r25, r30
 316:	0c f0       	brlt	.+2      	; 0x31a <DS18X20_format_from_decicelsius+0x3e>
 318:	50 c0       	rjmp	.+160    	; 0x3ba <DS18X20_format_from_decicelsius+0xde>
 31a:	97 ff       	sbrs	r25, 7
 31c:	06 c0       	rjmp	.+12     	; 0x32a <DS18X20_format_from_decicelsius+0x4e>
 31e:	91 95       	neg	r25
 320:	81 95       	neg	r24
 322:	91 09       	sbc	r25, r1
 324:	bb 24       	eor	r11, r11
 326:	b3 94       	inc	r11
 328:	01 c0       	rjmp	.+2      	; 0x32c <DS18X20_format_from_decicelsius+0x50>
 32a:	b1 2c       	mov	r11, r1
 32c:	cc 24       	eor	r12, r12
 32e:	c3 94       	inc	r12
 330:	d1 2c       	mov	r13, r1
 332:	cc 0e       	add	r12, r28
 334:	dd 1e       	adc	r13, r29
 336:	86 01       	movw	r16, r12
 338:	6a e0       	ldi	r22, 0x0A	; 10
 33a:	70 e0       	ldi	r23, 0x00	; 0
 33c:	68 d4       	rcall	.+2256   	; 0xc0e <__divmodhi4>
 33e:	80 5d       	subi	r24, 0xD0	; 208
 340:	f8 01       	movw	r30, r16
 342:	81 93       	st	Z+, r24
 344:	8f 01       	movw	r16, r30
 346:	2e 2f       	mov	r18, r30
 348:	2c 19       	sub	r18, r12
 34a:	86 2f       	mov	r24, r22
 34c:	97 2f       	mov	r25, r23
 34e:	18 16       	cp	r1, r24
 350:	19 06       	cpc	r1, r25
 352:	94 f3       	brlt	.-28     	; 0x338 <DS18X20_format_from_decicelsius+0x5c>
 354:	82 2f       	mov	r24, r18
 356:	99 27       	eor	r25, r25
 358:	87 fd       	sbrc	r24, 7
 35a:	90 95       	com	r25
 35c:	e1 e0       	ldi	r30, 0x01	; 1
 35e:	f0 e0       	ldi	r31, 0x00	; 0
 360:	ec 0f       	add	r30, r28
 362:	fd 1f       	adc	r31, r29
 364:	e8 0f       	add	r30, r24
 366:	f9 1f       	adc	r31, r25
 368:	bb 20       	and	r11, r11
 36a:	29 f0       	breq	.+10     	; 0x376 <DS18X20_format_from_decicelsius+0x9a>
 36c:	3d e2       	ldi	r19, 0x2D	; 45
 36e:	30 83       	st	Z, r19
 370:	90 e0       	ldi	r25, 0x00	; 0
 372:	3e e2       	ldi	r19, 0x2E	; 46
 374:	03 c0       	rjmp	.+6      	; 0x37c <DS18X20_format_from_decicelsius+0xa0>
 376:	3b e2       	ldi	r19, 0x2B	; 43
 378:	fa cf       	rjmp	.-12     	; 0x36e <DS18X20_format_from_decicelsius+0x92>
 37a:	98 2f       	mov	r25, r24
 37c:	f7 01       	movw	r30, r14
 37e:	e9 0f       	add	r30, r25
 380:	f1 1d       	adc	r31, r1
 382:	a1 e0       	ldi	r26, 0x01	; 1
 384:	b0 e0       	ldi	r27, 0x00	; 0
 386:	ac 0f       	add	r26, r28
 388:	bd 1f       	adc	r27, r29
 38a:	a2 0f       	add	r26, r18
 38c:	b1 1d       	adc	r27, r1
 38e:	27 fd       	sbrc	r18, 7
 390:	ba 95       	dec	r27
 392:	8c 91       	ld	r24, X
 394:	80 83       	st	Z, r24
 396:	89 2f       	mov	r24, r25
 398:	8f 5f       	subi	r24, 0xFF	; 255
 39a:	21 50       	subi	r18, 0x01	; 1
 39c:	31 f4       	brne	.+12     	; 0x3aa <DS18X20_format_from_decicelsius+0xce>
 39e:	f7 01       	movw	r30, r14
 3a0:	e8 0f       	add	r30, r24
 3a2:	f1 1d       	adc	r31, r1
 3a4:	30 83       	st	Z, r19
 3a6:	8f 5f       	subi	r24, 0xFF	; 255
 3a8:	e8 cf       	rjmp	.-48     	; 0x37a <DS18X20_format_from_decicelsius+0x9e>
 3aa:	27 ff       	sbrs	r18, 7
 3ac:	e6 cf       	rjmp	.-52     	; 0x37a <DS18X20_format_from_decicelsius+0x9e>
 3ae:	f7 01       	movw	r30, r14
 3b0:	e8 0f       	add	r30, r24
 3b2:	f1 1d       	adc	r31, r1
 3b4:	10 82       	st	Z, r1
 3b6:	80 e0       	ldi	r24, 0x00	; 0
 3b8:	01 c0       	rjmp	.+2      	; 0x3bc <DS18X20_format_from_decicelsius+0xe0>
 3ba:	81 e0       	ldi	r24, 0x01	; 1
 3bc:	27 96       	adiw	r28, 0x07	; 7
 3be:	0f b6       	in	r0, 0x3f	; 63
 3c0:	f8 94       	cli
 3c2:	de bf       	out	0x3e, r29	; 62
 3c4:	0f be       	out	0x3f, r0	; 63
 3c6:	cd bf       	out	0x3d, r28	; 61
 3c8:	df 91       	pop	r29
 3ca:	cf 91       	pop	r28
 3cc:	1f 91       	pop	r17
 3ce:	0f 91       	pop	r16
 3d0:	ff 90       	pop	r15
 3d2:	ef 90       	pop	r14
 3d4:	df 90       	pop	r13
 3d6:	cf 90       	pop	r12
 3d8:	bf 90       	pop	r11
 3da:	08 95       	ret

000003dc <DS18X20_read_decicelsius>:
 3dc:	df 92       	push	r13
 3de:	ef 92       	push	r14
 3e0:	ff 92       	push	r15
 3e2:	0f 93       	push	r16
 3e4:	1f 93       	push	r17
 3e6:	cf 93       	push	r28
 3e8:	df 93       	push	r29
 3ea:	cd b7       	in	r28, 0x3d	; 61
 3ec:	de b7       	in	r29, 0x3e	; 62
 3ee:	29 97       	sbiw	r28, 0x09	; 9
 3f0:	0f b6       	in	r0, 0x3f	; 63
 3f2:	f8 94       	cli
 3f4:	de bf       	out	0x3e, r29	; 62
 3f6:	0f be       	out	0x3f, r0	; 63
 3f8:	cd bf       	out	0x3d, r28	; 61
 3fa:	8c 01       	movw	r16, r24
 3fc:	7b 01       	movw	r14, r22
 3fe:	9e d1       	rcall	.+828    	; 0x73c <ow_reset>
 400:	be 01       	movw	r22, r28
 402:	6f 5f       	subi	r22, 0xFF	; 255
 404:	7f 4f       	sbci	r23, 0xFF	; 255
 406:	c8 01       	movw	r24, r16
 408:	f3 de       	rcall	.-538    	; 0x1f0 <read_scratchpad.constprop.0>
 40a:	d8 2e       	mov	r13, r24
 40c:	81 11       	cpse	r24, r1
 40e:	09 c0       	rjmp	.+18     	; 0x422 <DS18X20_read_decicelsius+0x46>
 410:	be 01       	movw	r22, r28
 412:	6f 5f       	subi	r22, 0xFF	; 255
 414:	7f 4f       	sbci	r23, 0xFF	; 255
 416:	f8 01       	movw	r30, r16
 418:	80 81       	ld	r24, Z
 41a:	32 de       	rcall	.-924    	; 0x80 <DS18X20_raw_to_decicelsius>
 41c:	f7 01       	movw	r30, r14
 41e:	91 83       	std	Z+1, r25	; 0x01
 420:	80 83       	st	Z, r24
 422:	8d 2d       	mov	r24, r13
 424:	29 96       	adiw	r28, 0x09	; 9
 426:	0f b6       	in	r0, 0x3f	; 63
 428:	f8 94       	cli
 42a:	de bf       	out	0x3e, r29	; 62
 42c:	0f be       	out	0x3f, r0	; 63
 42e:	cd bf       	out	0x3d, r28	; 61
 430:	df 91       	pop	r29
 432:	cf 91       	pop	r28
 434:	1f 91       	pop	r17
 436:	0f 91       	pop	r16
 438:	ff 90       	pop	r15
 43a:	ef 90       	pop	r14
 43c:	df 90       	pop	r13
 43e:	08 95       	ret

00000440 <DS18X20_read_decicelsius_single>:
 440:	ef 92       	push	r14
 442:	ff 92       	push	r15
 444:	0f 93       	push	r16
 446:	1f 93       	push	r17
 448:	cf 93       	push	r28
 44a:	df 93       	push	r29
 44c:	cd b7       	in	r28, 0x3d	; 61
 44e:	de b7       	in	r29, 0x3e	; 62
 450:	29 97       	sbiw	r28, 0x09	; 9
 452:	0f b6       	in	r0, 0x3f	; 63
 454:	f8 94       	cli
 456:	de bf       	out	0x3e, r29	; 62
 458:	0f be       	out	0x3f, r0	; 63
 45a:	cd bf       	out	0x3d, r28	; 61
 45c:	e8 2e       	mov	r14, r24
 45e:	8b 01       	movw	r16, r22
 460:	be 01       	movw	r22, r28
 462:	6f 5f       	subi	r22, 0xFF	; 255
 464:	7f 4f       	sbci	r23, 0xFF	; 255
 466:	80 e0       	ldi	r24, 0x00	; 0
 468:	90 e0       	ldi	r25, 0x00	; 0
 46a:	c2 de       	rcall	.-636    	; 0x1f0 <read_scratchpad.constprop.0>
 46c:	f8 2e       	mov	r15, r24
 46e:	81 11       	cpse	r24, r1
 470:	08 c0       	rjmp	.+16     	; 0x482 <__stack+0x23>
 472:	be 01       	movw	r22, r28
 474:	6f 5f       	subi	r22, 0xFF	; 255
 476:	7f 4f       	sbci	r23, 0xFF	; 255
 478:	8e 2d       	mov	r24, r14
 47a:	02 de       	rcall	.-1020   	; 0x80 <DS18X20_raw_to_decicelsius>
 47c:	f8 01       	movw	r30, r16
 47e:	91 83       	std	Z+1, r25	; 0x01
 480:	80 83       	st	Z, r24
 482:	8f 2d       	mov	r24, r15
 484:	29 96       	adiw	r28, 0x09	; 9
 486:	0f b6       	in	r0, 0x3f	; 63
 488:	f8 94       	cli
 48a:	de bf       	out	0x3e, r29	; 62
 48c:	0f be       	out	0x3f, r0	; 63
 48e:	cd bf       	out	0x3d, r28	; 61
 490:	df 91       	pop	r29
 492:	cf 91       	pop	r28
 494:	1f 91       	pop	r17
 496:	0f 91       	pop	r16
 498:	ff 90       	pop	r15
 49a:	ef 90       	pop	r14
 49c:	08 95       	ret

0000049e <DS18X20_read_maxres>:
 49e:	df 92       	push	r13
 4a0:	ef 92       	push	r14
 4a2:	ff 92       	push	r15
 4a4:	0f 93       	push	r16
 4a6:	1f 93       	push	r17
 4a8:	cf 93       	push	r28
 4aa:	df 93       	push	r29
 4ac:	cd b7       	in	r28, 0x3d	; 61
 4ae:	de b7       	in	r29, 0x3e	; 62
 4b0:	29 97       	sbiw	r28, 0x09	; 9
 4b2:	0f b6       	in	r0, 0x3f	; 63
 4b4:	f8 94       	cli
 4b6:	de bf       	out	0x3e, r29	; 62
 4b8:	0f be       	out	0x3f, r0	; 63
 4ba:	cd bf       	out	0x3d, r28	; 61
 4bc:	8c 01       	movw	r16, r24
 4be:	7b 01       	movw	r14, r22
 4c0:	3d d1       	rcall	.+634    	; 0x73c <ow_reset>
 4c2:	be 01       	movw	r22, r28
 4c4:	6f 5f       	subi	r22, 0xFF	; 255
 4c6:	7f 4f       	sbci	r23, 0xFF	; 255
 4c8:	c8 01       	movw	r24, r16
 4ca:	92 de       	rcall	.-732    	; 0x1f0 <read_scratchpad.constprop.0>
 4cc:	d8 2e       	mov	r13, r24
 4ce:	81 11       	cpse	r24, r1
 4d0:	0b c0       	rjmp	.+22     	; 0x4e8 <DS18X20_read_maxres+0x4a>
 4d2:	be 01       	movw	r22, r28
 4d4:	6f 5f       	subi	r22, 0xFF	; 255
 4d6:	7f 4f       	sbci	r23, 0xFF	; 255
 4d8:	f8 01       	movw	r30, r16
 4da:	80 81       	ld	r24, Z
 4dc:	2f de       	rcall	.-930    	; 0x13c <DS18X20_raw_to_maxres>
 4de:	f7 01       	movw	r30, r14
 4e0:	60 83       	st	Z, r22
 4e2:	71 83       	std	Z+1, r23	; 0x01
 4e4:	82 83       	std	Z+2, r24	; 0x02
 4e6:	93 83       	std	Z+3, r25	; 0x03
 4e8:	8d 2d       	mov	r24, r13
 4ea:	29 96       	adiw	r28, 0x09	; 9
 4ec:	0f b6       	in	r0, 0x3f	; 63
 4ee:	f8 94       	cli
 4f0:	de bf       	out	0x3e, r29	; 62
 4f2:	0f be       	out	0x3f, r0	; 63
 4f4:	cd bf       	out	0x3d, r28	; 61
 4f6:	df 91       	pop	r29
 4f8:	cf 91       	pop	r28
 4fa:	1f 91       	pop	r17
 4fc:	0f 91       	pop	r16
 4fe:	ff 90       	pop	r15
 500:	ef 90       	pop	r14
 502:	df 90       	pop	r13
 504:	08 95       	ret

00000506 <DS18X20_read_maxres_single>:
 506:	ef 92       	push	r14
 508:	ff 92       	push	r15
 50a:	0f 93       	push	r16
 50c:	1f 93       	push	r17
 50e:	cf 93       	push	r28
 510:	df 93       	push	r29
 512:	cd b7       	in	r28, 0x3d	; 61
 514:	de b7       	in	r29, 0x3e	; 62
 516:	29 97       	sbiw	r28, 0x09	; 9
 518:	0f b6       	in	r0, 0x3f	; 63
 51a:	f8 94       	cli
 51c:	de bf       	out	0x3e, r29	; 62
 51e:	0f be       	out	0x3f, r0	; 63
 520:	cd bf       	out	0x3d, r28	; 61
 522:	e8 2e       	mov	r14, r24
 524:	8b 01       	movw	r16, r22
 526:	be 01       	movw	r22, r28
 528:	6f 5f       	subi	r22, 0xFF	; 255
 52a:	7f 4f       	sbci	r23, 0xFF	; 255
 52c:	80 e0       	ldi	r24, 0x00	; 0
 52e:	90 e0       	ldi	r25, 0x00	; 0
 530:	5f de       	rcall	.-834    	; 0x1f0 <read_scratchpad.constprop.0>
 532:	f8 2e       	mov	r15, r24
 534:	81 11       	cpse	r24, r1
 536:	0a c0       	rjmp	.+20     	; 0x54c <DS18X20_read_maxres_single+0x46>
 538:	be 01       	movw	r22, r28
 53a:	6f 5f       	subi	r22, 0xFF	; 255
 53c:	7f 4f       	sbci	r23, 0xFF	; 255
 53e:	8e 2d       	mov	r24, r14
 540:	fd dd       	rcall	.-1030   	; 0x13c <DS18X20_raw_to_maxres>
 542:	f8 01       	movw	r30, r16
 544:	60 83       	st	Z, r22
 546:	71 83       	std	Z+1, r23	; 0x01
 548:	82 83       	std	Z+2, r24	; 0x02
 54a:	93 83       	std	Z+3, r25	; 0x03
 54c:	8f 2d       	mov	r24, r15
 54e:	29 96       	adiw	r28, 0x09	; 9
 550:	0f b6       	in	r0, 0x3f	; 63
 552:	f8 94       	cli
 554:	de bf       	out	0x3e, r29	; 62
 556:	0f be       	out	0x3f, r0	; 63
 558:	cd bf       	out	0x3d, r28	; 61
 55a:	df 91       	pop	r29
 55c:	cf 91       	pop	r28
 55e:	1f 91       	pop	r17
 560:	0f 91       	pop	r16
 562:	ff 90       	pop	r15
 564:	ef 90       	pop	r14
 566:	08 95       	ret

00000568 <DS18X20_format_from_maxres>:
 568:	af 92       	push	r10
 56a:	bf 92       	push	r11
 56c:	cf 92       	push	r12
 56e:	df 92       	push	r13
 570:	ef 92       	push	r14
 572:	ff 92       	push	r15
 574:	0f 93       	push	r16
 576:	1f 93       	push	r17
 578:	cf 93       	push	r28
 57a:	df 93       	push	r29
 57c:	cd b7       	in	r28, 0x3d	; 61
 57e:	de b7       	in	r29, 0x3e	; 62
 580:	6a 97       	sbiw	r28, 0x1a	; 26
 582:	0f b6       	in	r0, 0x3f	; 63
 584:	f8 94       	cli
 586:	de bf       	out	0x3e, r29	; 62
 588:	0f be       	out	0x3f, r0	; 63
 58a:	cd bf       	out	0x3d, r28	; 61
 58c:	7a 01       	movw	r14, r20
 58e:	2a 30       	cpi	r18, 0x0A	; 10
 590:	08 f4       	brcc	.+2      	; 0x594 <DS18X20_format_from_maxres+0x2c>
 592:	8d c0       	rjmp	.+282    	; 0x6ae <DS18X20_format_from_maxres+0x146>
 594:	61 3c       	cpi	r22, 0xC1	; 193
 596:	2d eb       	ldi	r18, 0xBD	; 189
 598:	72 07       	cpc	r23, r18
 59a:	20 ef       	ldi	r18, 0xF0	; 240
 59c:	82 07       	cpc	r24, r18
 59e:	2f ef       	ldi	r18, 0xFF	; 255
 5a0:	92 07       	cpc	r25, r18
 5a2:	0c f4       	brge	.+2      	; 0x5a6 <DS18X20_format_from_maxres+0x3e>
 5a4:	84 c0       	rjmp	.+264    	; 0x6ae <DS18X20_format_from_maxres+0x146>
 5a6:	60 38       	cpi	r22, 0x80	; 128
 5a8:	e6 e9       	ldi	r30, 0x96	; 150
 5aa:	7e 07       	cpc	r23, r30
 5ac:	e8 e9       	ldi	r30, 0x98	; 152
 5ae:	8e 07       	cpc	r24, r30
 5b0:	91 05       	cpc	r25, r1
 5b2:	0c f0       	brlt	.+2      	; 0x5b6 <DS18X20_format_from_maxres+0x4e>
 5b4:	7c c0       	rjmp	.+248    	; 0x6ae <DS18X20_format_from_maxres+0x146>
 5b6:	97 ff       	sbrs	r25, 7
 5b8:	0a c0       	rjmp	.+20     	; 0x5ce <DS18X20_format_from_maxres+0x66>
 5ba:	90 95       	com	r25
 5bc:	80 95       	com	r24
 5be:	70 95       	com	r23
 5c0:	61 95       	neg	r22
 5c2:	7f 4f       	sbci	r23, 0xFF	; 255
 5c4:	8f 4f       	sbci	r24, 0xFF	; 255
 5c6:	9f 4f       	sbci	r25, 0xFF	; 255
 5c8:	dd 24       	eor	r13, r13
 5ca:	d3 94       	inc	r13
 5cc:	01 c0       	rjmp	.+2      	; 0x5d0 <DS18X20_format_from_maxres+0x68>
 5ce:	d1 2c       	mov	r13, r1
 5d0:	8e 01       	movw	r16, r28
 5d2:	0f 5f       	subi	r16, 0xFF	; 255
 5d4:	1f 4f       	sbci	r17, 0xFF	; 255
 5d6:	c0 2e       	mov	r12, r16
 5d8:	28 e0       	ldi	r18, 0x08	; 8
 5da:	a2 2e       	mov	r10, r18
 5dc:	b0 2e       	mov	r11, r16
 5de:	bc 18       	sub	r11, r12
 5e0:	2a e0       	ldi	r18, 0x0A	; 10
 5e2:	30 e0       	ldi	r19, 0x00	; 0
 5e4:	40 e0       	ldi	r20, 0x00	; 0
 5e6:	50 e0       	ldi	r21, 0x00	; 0
 5e8:	47 d3       	rcall	.+1678   	; 0xc78 <__divmodsi4>
 5ea:	2b 8b       	std	Y+19, r18	; 0x13
 5ec:	3c 8b       	std	Y+20, r19	; 0x14
 5ee:	4d 8b       	std	Y+21, r20	; 0x15
 5f0:	5e 8b       	std	Y+22, r21	; 0x16
 5f2:	6f 8b       	std	Y+23, r22	; 0x17
 5f4:	78 8f       	std	Y+24, r23	; 0x18
 5f6:	89 8f       	std	Y+25, r24	; 0x19
 5f8:	9a 8f       	std	Y+26, r25	; 0x1a
 5fa:	fe 01       	movw	r30, r28
 5fc:	73 96       	adiw	r30, 0x13	; 19
 5fe:	de 01       	movw	r26, r28
 600:	1b 96       	adiw	r26, 0x0b	; 11
 602:	8a 2d       	mov	r24, r10
 604:	01 90       	ld	r0, Z+
 606:	0d 92       	st	X+, r0
 608:	8a 95       	dec	r24
 60a:	e1 f7       	brne	.-8      	; 0x604 <DS18X20_format_from_maxres+0x9c>
 60c:	8f 85       	ldd	r24, Y+15	; 0x0f
 60e:	80 5d       	subi	r24, 0xD0	; 208
 610:	f8 01       	movw	r30, r16
 612:	81 93       	st	Z+, r24
 614:	8f 01       	movw	r16, r30
 616:	2e 2f       	mov	r18, r30
 618:	2c 19       	sub	r18, r12
 61a:	6b 85       	ldd	r22, Y+11	; 0x0b
 61c:	7c 85       	ldd	r23, Y+12	; 0x0c
 61e:	8d 85       	ldd	r24, Y+13	; 0x0d
 620:	9e 85       	ldd	r25, Y+14	; 0x0e
 622:	16 16       	cp	r1, r22
 624:	17 06       	cpc	r1, r23
 626:	18 06       	cpc	r1, r24
 628:	19 06       	cpc	r1, r25
 62a:	c4 f2       	brlt	.-80     	; 0x5dc <DS18X20_format_from_maxres+0x74>
 62c:	82 2f       	mov	r24, r18
 62e:	82 50       	subi	r24, 0x02	; 2
 630:	82 30       	cpi	r24, 0x02	; 2
 632:	48 f4       	brcc	.+18     	; 0x646 <DS18X20_format_from_maxres+0xde>
 634:	fe 01       	movw	r30, r28
 636:	e2 0f       	add	r30, r18
 638:	f1 1d       	adc	r31, r1
 63a:	27 fd       	sbrc	r18, 7
 63c:	fa 95       	dec	r31
 63e:	80 e3       	ldi	r24, 0x30	; 48
 640:	81 83       	std	Z+1, r24	; 0x01
 642:	2b 2d       	mov	r18, r11
 644:	2e 5f       	subi	r18, 0xFE	; 254
 646:	82 2f       	mov	r24, r18
 648:	99 27       	eor	r25, r25
 64a:	87 fd       	sbrc	r24, 7
 64c:	90 95       	com	r25
 64e:	e1 e0       	ldi	r30, 0x01	; 1
 650:	f0 e0       	ldi	r31, 0x00	; 0
 652:	ec 0f       	add	r30, r28
 654:	fd 1f       	adc	r31, r29
 656:	e8 0f       	add	r30, r24
 658:	f9 1f       	adc	r31, r25
 65a:	dd 20       	and	r13, r13
 65c:	29 f0       	breq	.+10     	; 0x668 <DS18X20_format_from_maxres+0x100>
 65e:	3d e2       	ldi	r19, 0x2D	; 45
 660:	30 83       	st	Z, r19
 662:	90 e0       	ldi	r25, 0x00	; 0
 664:	3e e2       	ldi	r19, 0x2E	; 46
 666:	03 c0       	rjmp	.+6      	; 0x66e <DS18X20_format_from_maxres+0x106>
 668:	3b e2       	ldi	r19, 0x2B	; 43
 66a:	fa cf       	rjmp	.-12     	; 0x660 <DS18X20_format_from_maxres+0xf8>
 66c:	98 2f       	mov	r25, r24
 66e:	f7 01       	movw	r30, r14
 670:	e9 0f       	add	r30, r25
 672:	f1 1d       	adc	r31, r1
 674:	a1 e0       	ldi	r26, 0x01	; 1
 676:	b0 e0       	ldi	r27, 0x00	; 0
 678:	ac 0f       	add	r26, r28
 67a:	bd 1f       	adc	r27, r29
 67c:	a2 0f       	add	r26, r18
 67e:	b1 1d       	adc	r27, r1
 680:	27 fd       	sbrc	r18, 7
 682:	ba 95       	dec	r27
 684:	8c 91       	ld	r24, X
 686:	80 83       	st	Z, r24
 688:	89 2f       	mov	r24, r25
 68a:	8f 5f       	subi	r24, 0xFF	; 255
 68c:	21 50       	subi	r18, 0x01	; 1
 68e:	23 30       	cpi	r18, 0x03	; 3
 690:	31 f4       	brne	.+12     	; 0x69e <DS18X20_format_from_maxres+0x136>
 692:	f7 01       	movw	r30, r14
 694:	e8 0f       	add	r30, r24
 696:	f1 1d       	adc	r31, r1
 698:	30 83       	st	Z, r19
 69a:	8f 5f       	subi	r24, 0xFF	; 255
 69c:	e7 cf       	rjmp	.-50     	; 0x66c <DS18X20_format_from_maxres+0x104>
 69e:	27 ff       	sbrs	r18, 7
 6a0:	e5 cf       	rjmp	.-54     	; 0x66c <DS18X20_format_from_maxres+0x104>
 6a2:	f7 01       	movw	r30, r14
 6a4:	e8 0f       	add	r30, r24
 6a6:	f1 1d       	adc	r31, r1
 6a8:	10 82       	st	Z, r1
 6aa:	80 e0       	ldi	r24, 0x00	; 0
 6ac:	01 c0       	rjmp	.+2      	; 0x6b0 <DS18X20_format_from_maxres+0x148>
 6ae:	81 e0       	ldi	r24, 0x01	; 1
 6b0:	6a 96       	adiw	r28, 0x1a	; 26
 6b2:	0f b6       	in	r0, 0x3f	; 63
 6b4:	f8 94       	cli
 6b6:	de bf       	out	0x3e, r29	; 62
 6b8:	0f be       	out	0x3f, r0	; 63
 6ba:	cd bf       	out	0x3d, r28	; 61
 6bc:	df 91       	pop	r29
 6be:	cf 91       	pop	r28
 6c0:	1f 91       	pop	r17
 6c2:	0f 91       	pop	r16
 6c4:	ff 90       	pop	r15
 6c6:	ef 90       	pop	r14
 6c8:	df 90       	pop	r13
 6ca:	cf 90       	pop	r12
 6cc:	bf 90       	pop	r11
 6ce:	af 90       	pop	r10
 6d0:	08 95       	ret

000006d2 <ow_input_pin_state>:
 6d2:	86 b3       	in	r24, 0x16	; 22
 6d4:	81 70       	andi	r24, 0x01	; 1
 6d6:	08 95       	ret

000006d8 <ow_parasite_enable>:
 6d8:	c0 9a       	sbi	0x18, 0	; 24
 6da:	b8 9a       	sbi	0x17, 0	; 23
 6dc:	08 95       	ret

000006de <ow_bit_io_intern>:
 6de:	1f 93       	push	r17
 6e0:	cf 93       	push	r28
 6e2:	df 93       	push	r29
 6e4:	1f 92       	push	r1
 6e6:	cd b7       	in	r28, 0x3d	; 61
 6e8:	de b7       	in	r29, 0x3e	; 62
 6ea:	1f b7       	in	r17, 0x3f	; 63
 6ec:	f8 94       	cli
 6ee:	c0 98       	cbi	0x18, 0	; 24
 6f0:	b8 9a       	sbi	0x17, 0	; 23
 6f2:	95 e0       	ldi	r25, 0x05	; 5
 6f4:	9a 95       	dec	r25
 6f6:	f1 f7       	brne	.-4      	; 0x6f4 <ow_bit_io_intern+0x16>
 6f8:	00 00       	nop
 6fa:	88 23       	and	r24, r24
 6fc:	11 f0       	breq	.+4      	; 0x702 <ow_bit_io_intern+0x24>
 6fe:	b8 98       	cbi	0x17, 0	; 23
 700:	c0 9a       	sbi	0x18, 0	; 24
 702:	e2 e2       	ldi	r30, 0x22	; 34
 704:	ea 95       	dec	r30
 706:	f1 f7       	brne	.-4      	; 0x704 <ow_bit_io_intern+0x26>
 708:	00 c0       	rjmp	.+0      	; 0x70a <ow_bit_io_intern+0x2c>
 70a:	b0 9b       	sbis	0x16, 0	; 22
 70c:	80 e0       	ldi	r24, 0x00	; 0
 70e:	f2 e7       	ldi	r31, 0x72	; 114
 710:	fa 95       	dec	r31
 712:	f1 f7       	brne	.-4      	; 0x710 <ow_bit_io_intern+0x32>
 714:	00 c0       	rjmp	.+0      	; 0x716 <ow_bit_io_intern+0x38>
 716:	c0 9a       	sbi	0x18, 0	; 24
 718:	b8 98       	cbi	0x17, 0	; 23
 71a:	66 23       	and	r22, r22
 71c:	19 f0       	breq	.+6      	; 0x724 <ow_bit_io_intern+0x46>
 71e:	89 83       	std	Y+1, r24	; 0x01
 720:	db df       	rcall	.-74     	; 0x6d8 <ow_parasite_enable>
 722:	89 81       	ldd	r24, Y+1	; 0x01
 724:	1f bf       	out	0x3f, r17	; 63
 726:	9a e1       	ldi	r25, 0x1A	; 26
 728:	9a 95       	dec	r25
 72a:	f1 f7       	brne	.-4      	; 0x728 <ow_bit_io_intern+0x4a>
 72c:	00 c0       	rjmp	.+0      	; 0x72e <ow_bit_io_intern+0x50>
 72e:	0f 90       	pop	r0
 730:	df 91       	pop	r29
 732:	cf 91       	pop	r28
 734:	1f 91       	pop	r17
 736:	08 95       	ret

00000738 <ow_parasite_disable>:
 738:	b8 98       	cbi	0x17, 0	; 23
 73a:	08 95       	ret

0000073c <ow_reset>:
 73c:	c0 98       	cbi	0x18, 0	; 24
 73e:	b8 9a       	sbi	0x17, 0	; 23
 740:	8f eb       	ldi	r24, 0xBF	; 191
 742:	93 e0       	ldi	r25, 0x03	; 3
 744:	01 97       	sbiw	r24, 0x01	; 1
 746:	f1 f7       	brne	.-4      	; 0x744 <ow_reset+0x8>
 748:	00 c0       	rjmp	.+0      	; 0x74a <ow_reset+0xe>
 74a:	00 00       	nop
 74c:	9f b7       	in	r25, 0x3f	; 63
 74e:	f8 94       	cli
 750:	b8 98       	cbi	0x17, 0	; 23
 752:	c0 9a       	sbi	0x18, 0	; 24
 754:	ea ea       	ldi	r30, 0xAA	; 170
 756:	ea 95       	dec	r30
 758:	f1 f7       	brne	.-4      	; 0x756 <ow_reset+0x1a>
 75a:	00 c0       	rjmp	.+0      	; 0x75c <ow_reset+0x20>
 75c:	86 b3       	in	r24, 0x16	; 22
 75e:	9f bf       	out	0x3f, r25	; 63
 760:	ef e3       	ldi	r30, 0x3F	; 63
 762:	f3 e0       	ldi	r31, 0x03	; 3
 764:	31 97       	sbiw	r30, 0x01	; 1
 766:	f1 f7       	brne	.-4      	; 0x764 <ow_reset+0x28>
 768:	00 c0       	rjmp	.+0      	; 0x76a <ow_reset+0x2e>
 76a:	00 00       	nop
 76c:	b0 9b       	sbis	0x16, 0	; 22
 76e:	02 c0       	rjmp	.+4      	; 0x774 <ow_reset+0x38>
 770:	81 70       	andi	r24, 0x01	; 1
 772:	08 95       	ret
 774:	81 e0       	ldi	r24, 0x01	; 1
 776:	08 95       	ret

00000778 <ow_bit_io>:
 778:	60 e0       	ldi	r22, 0x00	; 0
 77a:	81 70       	andi	r24, 0x01	; 1
 77c:	b0 cf       	rjmp	.-160    	; 0x6de <ow_bit_io_intern>

0000077e <ow_byte_wr>:
 77e:	cf 93       	push	r28
 780:	df 93       	push	r29
 782:	c8 2f       	mov	r28, r24
 784:	d8 e0       	ldi	r29, 0x08	; 8
 786:	8c 2f       	mov	r24, r28
 788:	81 70       	andi	r24, 0x01	; 1
 78a:	f6 df       	rcall	.-20     	; 0x778 <ow_bit_io>
 78c:	c6 95       	lsr	r28
 78e:	81 11       	cpse	r24, r1
 790:	c0 68       	ori	r28, 0x80	; 128
 792:	d1 50       	subi	r29, 0x01	; 1
 794:	c1 f7       	brne	.-16     	; 0x786 <ow_byte_wr+0x8>
 796:	8c 2f       	mov	r24, r28
 798:	df 91       	pop	r29
 79a:	cf 91       	pop	r28
 79c:	08 95       	ret

0000079e <ow_byte_wr_with_parasite_enable>:
 79e:	cf 93       	push	r28
 7a0:	df 93       	push	r29
 7a2:	c8 2f       	mov	r28, r24
 7a4:	d8 e0       	ldi	r29, 0x08	; 8
 7a6:	8c 2f       	mov	r24, r28
 7a8:	81 70       	andi	r24, 0x01	; 1
 7aa:	d1 30       	cpi	r29, 0x01	; 1
 7ac:	11 f0       	breq	.+4      	; 0x7b2 <ow_byte_wr_with_parasite_enable+0x14>
 7ae:	60 e0       	ldi	r22, 0x00	; 0
 7b0:	01 c0       	rjmp	.+2      	; 0x7b4 <ow_byte_wr_with_parasite_enable+0x16>
 7b2:	61 e0       	ldi	r22, 0x01	; 1
 7b4:	94 df       	rcall	.-216    	; 0x6de <ow_bit_io_intern>
 7b6:	c6 95       	lsr	r28
 7b8:	81 11       	cpse	r24, r1
 7ba:	c0 68       	ori	r28, 0x80	; 128
 7bc:	d1 50       	subi	r29, 0x01	; 1
 7be:	99 f7       	brne	.-26     	; 0x7a6 <ow_byte_wr_with_parasite_enable+0x8>
 7c0:	8c 2f       	mov	r24, r28
 7c2:	df 91       	pop	r29
 7c4:	cf 91       	pop	r28
 7c6:	08 95       	ret

000007c8 <ow_command_intern>:
 7c8:	ef 92       	push	r14
 7ca:	ff 92       	push	r15
 7cc:	0f 93       	push	r16
 7ce:	1f 93       	push	r17
 7d0:	cf 93       	push	r28
 7d2:	df 93       	push	r29
 7d4:	f8 2e       	mov	r15, r24
 7d6:	eb 01       	movw	r28, r22
 7d8:	e4 2e       	mov	r14, r20
 7da:	b0 df       	rcall	.-160    	; 0x73c <ow_reset>
 7dc:	20 97       	sbiw	r28, 0x00	; 0
 7de:	59 f0       	breq	.+22     	; 0x7f6 <ow_command_intern+0x2e>
 7e0:	85 e5       	ldi	r24, 0x55	; 85
 7e2:	cd df       	rcall	.-102    	; 0x77e <ow_byte_wr>
 7e4:	8e 01       	movw	r16, r28
 7e6:	08 5f       	subi	r16, 0xF8	; 248
 7e8:	1f 4f       	sbci	r17, 0xFF	; 255
 7ea:	89 91       	ld	r24, Y+
 7ec:	c8 df       	rcall	.-112    	; 0x77e <ow_byte_wr>
 7ee:	c0 17       	cp	r28, r16
 7f0:	d1 07       	cpc	r29, r17
 7f2:	d9 f7       	brne	.-10     	; 0x7ea <ow_command_intern+0x22>
 7f4:	02 c0       	rjmp	.+4      	; 0x7fa <ow_command_intern+0x32>
 7f6:	8c ec       	ldi	r24, 0xCC	; 204
 7f8:	c2 df       	rcall	.-124    	; 0x77e <ow_byte_wr>
 7fa:	8f 2d       	mov	r24, r15
 7fc:	ee 20       	and	r14, r14
 7fe:	39 f0       	breq	.+14     	; 0x80e <ow_command_intern+0x46>
 800:	df 91       	pop	r29
 802:	cf 91       	pop	r28
 804:	1f 91       	pop	r17
 806:	0f 91       	pop	r16
 808:	ff 90       	pop	r15
 80a:	ef 90       	pop	r14
 80c:	c8 cf       	rjmp	.-112    	; 0x79e <ow_byte_wr_with_parasite_enable>
 80e:	df 91       	pop	r29
 810:	cf 91       	pop	r28
 812:	1f 91       	pop	r17
 814:	0f 91       	pop	r16
 816:	ff 90       	pop	r15
 818:	ef 90       	pop	r14
 81a:	b1 cf       	rjmp	.-158    	; 0x77e <ow_byte_wr>

0000081c <ow_byte_rd>:
 81c:	8f ef       	ldi	r24, 0xFF	; 255
 81e:	af cf       	rjmp	.-162    	; 0x77e <ow_byte_wr>

00000820 <ow_rom_search>:
 820:	df 92       	push	r13
 822:	ef 92       	push	r14
 824:	ff 92       	push	r15
 826:	0f 93       	push	r16
 828:	1f 93       	push	r17
 82a:	cf 93       	push	r28
 82c:	df 93       	push	r29
 82e:	e8 2e       	mov	r14, r24
 830:	eb 01       	movw	r28, r22
 832:	84 df       	rcall	.-248    	; 0x73c <ow_reset>
 834:	81 11       	cpse	r24, r1
 836:	2d c0       	rjmp	.+90     	; 0x892 <ow_rom_search+0x72>
 838:	80 ef       	ldi	r24, 0xF0	; 240
 83a:	a1 df       	rcall	.-190    	; 0x77e <ow_byte_wr>
 83c:	f1 2c       	mov	r15, r1
 83e:	10 e4       	ldi	r17, 0x40	; 64
 840:	98 ef       	ldi	r25, 0xF8	; 248
 842:	d9 2e       	mov	r13, r25
 844:	d1 0e       	add	r13, r17
 846:	81 e0       	ldi	r24, 0x01	; 1
 848:	97 df       	rcall	.-210    	; 0x778 <ow_bit_io>
 84a:	08 2f       	mov	r16, r24
 84c:	81 e0       	ldi	r24, 0x01	; 1
 84e:	94 df       	rcall	.-216    	; 0x778 <ow_bit_io>
 850:	88 23       	and	r24, r24
 852:	19 f0       	breq	.+6      	; 0x85a <ow_rom_search+0x3a>
 854:	00 23       	and	r16, r16
 856:	69 f0       	breq	.+26     	; 0x872 <ow_rom_search+0x52>
 858:	1f c0       	rjmp	.+62     	; 0x898 <ow_rom_search+0x78>
 85a:	01 11       	cpse	r16, r1
 85c:	0a c0       	rjmp	.+20     	; 0x872 <ow_rom_search+0x52>
 85e:	1e 15       	cp	r17, r14
 860:	30 f0       	brcs	.+12     	; 0x86e <ow_rom_search+0x4e>
 862:	88 81       	ld	r24, Y
 864:	80 ff       	sbrs	r24, 0
 866:	05 c0       	rjmp	.+10     	; 0x872 <ow_rom_search+0x52>
 868:	e1 12       	cpse	r14, r17
 86a:	01 c0       	rjmp	.+2      	; 0x86e <ow_rom_search+0x4e>
 86c:	02 c0       	rjmp	.+4      	; 0x872 <ow_rom_search+0x52>
 86e:	f1 2e       	mov	r15, r17
 870:	01 e0       	ldi	r16, 0x01	; 1
 872:	80 2f       	mov	r24, r16
 874:	81 df       	rcall	.-254    	; 0x778 <ow_bit_io>
 876:	98 81       	ld	r25, Y
 878:	96 95       	lsr	r25
 87a:	01 11       	cpse	r16, r1
 87c:	01 c0       	rjmp	.+2      	; 0x880 <ow_rom_search+0x60>
 87e:	01 c0       	rjmp	.+2      	; 0x882 <ow_rom_search+0x62>
 880:	90 68       	ori	r25, 0x80	; 128
 882:	98 83       	st	Y, r25
 884:	11 50       	subi	r17, 0x01	; 1
 886:	1d 11       	cpse	r17, r13
 888:	de cf       	rjmp	.-68     	; 0x846 <ow_rom_search+0x26>
 88a:	21 96       	adiw	r28, 0x01	; 1
 88c:	11 11       	cpse	r17, r1
 88e:	d8 cf       	rjmp	.-80     	; 0x840 <ow_rom_search+0x20>
 890:	05 c0       	rjmp	.+10     	; 0x89c <ow_rom_search+0x7c>
 892:	ff 24       	eor	r15, r15
 894:	fa 94       	dec	r15
 896:	02 c0       	rjmp	.+4      	; 0x89c <ow_rom_search+0x7c>
 898:	8e ef       	ldi	r24, 0xFE	; 254
 89a:	f8 2e       	mov	r15, r24
 89c:	8f 2d       	mov	r24, r15
 89e:	df 91       	pop	r29
 8a0:	cf 91       	pop	r28
 8a2:	1f 91       	pop	r17
 8a4:	0f 91       	pop	r16
 8a6:	ff 90       	pop	r15
 8a8:	ef 90       	pop	r14
 8aa:	df 90       	pop	r13
 8ac:	08 95       	ret

000008ae <ow_command>:
 8ae:	40 e0       	ldi	r20, 0x00	; 0
 8b0:	8b cf       	rjmp	.-234    	; 0x7c8 <ow_command_intern>

000008b2 <ow_command_with_parasite_enable>:
 8b2:	41 e0       	ldi	r20, 0x01	; 1
 8b4:	89 cf       	rjmp	.-238    	; 0x7c8 <ow_command_intern>

000008b6 <receive>:
 8b6:	cf 93       	push	r28
 8b8:	df 93       	push	r29
 8ba:	cd b7       	in	r28, 0x3d	; 61
 8bc:	de b7       	in	r29, 0x3e	; 62
 8be:	a0 97       	sbiw	r28, 0x20	; 32
 8c0:	0f b6       	in	r0, 0x3f	; 63
 8c2:	f8 94       	cli
 8c4:	de bf       	out	0x3e, r29	; 62
 8c6:	0f be       	out	0x3f, r0	; 63
 8c8:	cd bf       	out	0x3d, r28	; 61
 8ca:	60 e2       	ldi	r22, 0x20	; 32
 8cc:	ce 01       	movw	r24, r28
 8ce:	01 96       	adiw	r24, 0x01	; 1
 8d0:	c8 d0       	rcall	.+400    	; 0xa62 <rf12_rxdata>
 8d2:	a0 96       	adiw	r28, 0x20	; 32
 8d4:	0f b6       	in	r0, 0x3f	; 63
 8d6:	f8 94       	cli
 8d8:	de bf       	out	0x3e, r29	; 62
 8da:	0f be       	out	0x3f, r0	; 63
 8dc:	cd bf       	out	0x3d, r28	; 61
 8de:	df 91       	pop	r29
 8e0:	cf 91       	pop	r28
 8e2:	08 95       	ret

000008e4 <send>:
 8e4:	60 e2       	ldi	r22, 0x20	; 32
 8e6:	88 c0       	rjmp	.+272    	; 0x9f8 <rf12_txdata>

000008e8 <rf12_trans>:
 8e8:	c2 98       	cbi	0x18, 2	; 24
 8ea:	40 e1       	ldi	r20, 0x10	; 16
 8ec:	20 e0       	ldi	r18, 0x00	; 0
 8ee:	30 e0       	ldi	r19, 0x00	; 0
 8f0:	97 ff       	sbrs	r25, 7
 8f2:	02 c0       	rjmp	.+4      	; 0x8f8 <rf12_trans+0x10>
 8f4:	c3 9a       	sbi	0x18, 3	; 24
 8f6:	01 c0       	rjmp	.+2      	; 0x8fa <rf12_trans+0x12>
 8f8:	c3 98       	cbi	0x18, 3	; 24
 8fa:	22 0f       	add	r18, r18
 8fc:	33 1f       	adc	r19, r19
 8fe:	b4 99       	sbic	0x16, 4	; 22
 900:	21 60       	ori	r18, 0x01	; 1
 902:	c5 9a       	sbi	0x18, 5	; 24
 904:	88 0f       	add	r24, r24
 906:	99 1f       	adc	r25, r25
 908:	00 c0       	rjmp	.+0      	; 0x90a <rf12_trans+0x22>
 90a:	00 00       	nop
 90c:	c5 98       	cbi	0x18, 5	; 24
 90e:	41 50       	subi	r20, 0x01	; 1
 910:	79 f7       	brne	.-34     	; 0x8f0 <rf12_trans+0x8>
 912:	c2 9a       	sbi	0x18, 2	; 24
 914:	c9 01       	movw	r24, r18
 916:	08 95       	ret

00000918 <rf12_init>:
 918:	8c e2       	ldi	r24, 0x2C	; 44
 91a:	87 bb       	out	0x17, r24	; 23
 91c:	84 e0       	ldi	r24, 0x04	; 4
 91e:	88 bb       	out	0x18, r24	; 24
 920:	8a e0       	ldi	r24, 0x0A	; 10
 922:	ef e1       	ldi	r30, 0x1F	; 31
 924:	fe e4       	ldi	r31, 0x4E	; 78
 926:	31 97       	sbiw	r30, 0x01	; 1
 928:	f1 f7       	brne	.-4      	; 0x926 <rf12_init+0xe>
 92a:	00 c0       	rjmp	.+0      	; 0x92c <rf12_init+0x14>
 92c:	00 00       	nop
 92e:	81 50       	subi	r24, 0x01	; 1
 930:	c1 f7       	brne	.-16     	; 0x922 <rf12_init+0xa>
 932:	80 ee       	ldi	r24, 0xE0	; 224
 934:	90 ec       	ldi	r25, 0xC0	; 192
 936:	d8 df       	rcall	.-80     	; 0x8e8 <rf12_trans>
 938:	87 ed       	ldi	r24, 0xD7	; 215
 93a:	90 e8       	ldi	r25, 0x80	; 128
 93c:	d5 df       	rcall	.-86     	; 0x8e8 <rf12_trans>
 93e:	8b ea       	ldi	r24, 0xAB	; 171
 940:	92 ec       	ldi	r25, 0xC2	; 194
 942:	d2 df       	rcall	.-92     	; 0x8e8 <rf12_trans>
 944:	81 e8       	ldi	r24, 0x81	; 129
 946:	9a ec       	ldi	r25, 0xCA	; 202
 948:	cf df       	rcall	.-98     	; 0x8e8 <rf12_trans>
 94a:	80 e0       	ldi	r24, 0x00	; 0
 94c:	90 ee       	ldi	r25, 0xE0	; 224
 94e:	cc df       	rcall	.-104    	; 0x8e8 <rf12_trans>
 950:	80 e0       	ldi	r24, 0x00	; 0
 952:	98 ec       	ldi	r25, 0xC8	; 200
 954:	c9 df       	rcall	.-110    	; 0x8e8 <rf12_trans>
 956:	87 ef       	ldi	r24, 0xF7	; 247
 958:	94 ec       	ldi	r25, 0xC4	; 196
 95a:	c6 cf       	rjmp	.-116    	; 0x8e8 <rf12_trans>

0000095c <rf12_setbandwidth>:
 95c:	47 70       	andi	r20, 0x07	; 7
 95e:	50 e0       	ldi	r21, 0x00	; 0
 960:	54 69       	ori	r21, 0x94	; 148
 962:	63 70       	andi	r22, 0x03	; 3
 964:	28 e0       	ldi	r18, 0x08	; 8
 966:	62 9f       	mul	r22, r18
 968:	b0 01       	movw	r22, r0
 96a:	11 24       	eor	r1, r1
 96c:	20 e2       	ldi	r18, 0x20	; 32
 96e:	82 9f       	mul	r24, r18
 970:	c0 01       	movw	r24, r0
 972:	11 24       	eor	r1, r1
 974:	99 27       	eor	r25, r25
 976:	68 2b       	or	r22, r24
 978:	79 2b       	or	r23, r25
 97a:	ca 01       	movw	r24, r20
 97c:	86 2b       	or	r24, r22
 97e:	97 2b       	or	r25, r23
 980:	b3 cf       	rjmp	.-154    	; 0x8e8 <rf12_trans>

00000982 <rf12_setfreq>:
 982:	80 36       	cpi	r24, 0x60	; 96
 984:	91 05       	cpc	r25, r1
 986:	38 f0       	brcs	.+14     	; 0x996 <rf12_setfreq+0x14>
 988:	80 34       	cpi	r24, 0x40	; 64
 98a:	2f e0       	ldi	r18, 0x0F	; 15
 98c:	92 07       	cpc	r25, r18
 98e:	28 f0       	brcs	.+10     	; 0x99a <rf12_setfreq+0x18>
 990:	8f e3       	ldi	r24, 0x3F	; 63
 992:	9f e0       	ldi	r25, 0x0F	; 15
 994:	02 c0       	rjmp	.+4      	; 0x99a <rf12_setfreq+0x18>
 996:	80 e6       	ldi	r24, 0x60	; 96
 998:	90 e0       	ldi	r25, 0x00	; 0
 99a:	90 6a       	ori	r25, 0xA0	; 160
 99c:	a5 cf       	rjmp	.-182    	; 0x8e8 <rf12_trans>

0000099e <rf12_setbaud>:
 99e:	87 39       	cpi	r24, 0x97	; 151
 9a0:	22 e0       	ldi	r18, 0x02	; 2
 9a2:	92 07       	cpc	r25, r18
 9a4:	c8 f0       	brcs	.+50     	; 0x9d8 <rf12_setbaud+0x3a>
 9a6:	9c 01       	movw	r18, r24
 9a8:	40 e0       	ldi	r20, 0x00	; 0
 9aa:	50 e0       	ldi	r21, 0x00	; 0
 9ac:	88 31       	cpi	r24, 0x18	; 24
 9ae:	95 41       	sbci	r25, 0x15	; 21
 9b0:	50 f4       	brcc	.+20     	; 0x9c6 <rf12_setbaud+0x28>
 9b2:	60 e6       	ldi	r22, 0x60	; 96
 9b4:	78 ea       	ldi	r23, 0xA8	; 168
 9b6:	80 e0       	ldi	r24, 0x00	; 0
 9b8:	90 e0       	ldi	r25, 0x00	; 0
 9ba:	5e d1       	rcall	.+700    	; 0xc78 <__divmodsi4>
 9bc:	c9 01       	movw	r24, r18
 9be:	01 97       	sbiw	r24, 0x01	; 1
 9c0:	80 68       	ori	r24, 0x80	; 128
 9c2:	96 6c       	ori	r25, 0xC6	; 198
 9c4:	08 c0       	rjmp	.+16     	; 0x9d6 <rf12_setbaud+0x38>
 9c6:	6c ef       	ldi	r22, 0xFC	; 252
 9c8:	72 e4       	ldi	r23, 0x42	; 66
 9ca:	85 e0       	ldi	r24, 0x05	; 5
 9cc:	90 e0       	ldi	r25, 0x00	; 0
 9ce:	32 d1       	rcall	.+612    	; 0xc34 <__udivmodsi4>
 9d0:	c9 01       	movw	r24, r18
 9d2:	01 97       	sbiw	r24, 0x01	; 1
 9d4:	96 6c       	ori	r25, 0xC6	; 198
 9d6:	88 cf       	rjmp	.-240    	; 0x8e8 <rf12_trans>
 9d8:	08 95       	ret

000009da <rf12_setpower>:
 9da:	87 70       	andi	r24, 0x07	; 7
 9dc:	90 e0       	ldi	r25, 0x00	; 0
 9de:	98 69       	ori	r25, 0x98	; 152
 9e0:	20 e1       	ldi	r18, 0x10	; 16
 9e2:	62 9f       	mul	r22, r18
 9e4:	b0 01       	movw	r22, r0
 9e6:	11 24       	eor	r1, r1
 9e8:	77 27       	eor	r23, r23
 9ea:	86 2b       	or	r24, r22
 9ec:	97 2b       	or	r25, r23
 9ee:	7c cf       	rjmp	.-264    	; 0x8e8 <rf12_trans>

000009f0 <rf12_ready>:
 9f0:	c2 98       	cbi	0x18, 2	; 24
 9f2:	b4 9b       	sbis	0x16, 4	; 22
 9f4:	fe cf       	rjmp	.-4      	; 0x9f2 <rf12_ready+0x2>
 9f6:	08 95       	ret

000009f8 <rf12_txdata>:
 9f8:	ff 92       	push	r15
 9fa:	0f 93       	push	r16
 9fc:	1f 93       	push	r17
 9fe:	cf 93       	push	r28
 a00:	df 93       	push	r29
 a02:	18 2f       	mov	r17, r24
 a04:	f9 2e       	mov	r15, r25
 a06:	06 2f       	mov	r16, r22
 a08:	88 e3       	ldi	r24, 0x38	; 56
 a0a:	92 e8       	ldi	r25, 0x82	; 130
 a0c:	6d df       	rcall	.-294    	; 0x8e8 <rf12_trans>
 a0e:	f0 df       	rcall	.-32     	; 0x9f0 <rf12_ready>
 a10:	8a ea       	ldi	r24, 0xAA	; 170
 a12:	98 eb       	ldi	r25, 0xB8	; 184
 a14:	69 df       	rcall	.-302    	; 0x8e8 <rf12_trans>
 a16:	ec df       	rcall	.-40     	; 0x9f0 <rf12_ready>
 a18:	8a ea       	ldi	r24, 0xAA	; 170
 a1a:	98 eb       	ldi	r25, 0xB8	; 184
 a1c:	65 df       	rcall	.-310    	; 0x8e8 <rf12_trans>
 a1e:	e8 df       	rcall	.-48     	; 0x9f0 <rf12_ready>
 a20:	8a ea       	ldi	r24, 0xAA	; 170
 a22:	98 eb       	ldi	r25, 0xB8	; 184
 a24:	61 df       	rcall	.-318    	; 0x8e8 <rf12_trans>
 a26:	e4 df       	rcall	.-56     	; 0x9f0 <rf12_ready>
 a28:	8d e2       	ldi	r24, 0x2D	; 45
 a2a:	98 eb       	ldi	r25, 0xB8	; 184
 a2c:	5d df       	rcall	.-326    	; 0x8e8 <rf12_trans>
 a2e:	e0 df       	rcall	.-64     	; 0x9f0 <rf12_ready>
 a30:	84 ed       	ldi	r24, 0xD4	; 212
 a32:	98 eb       	ldi	r25, 0xB8	; 184
 a34:	59 df       	rcall	.-334    	; 0x8e8 <rf12_trans>
 a36:	c1 2f       	mov	r28, r17
 a38:	df 2d       	mov	r29, r15
 a3a:	06 c0       	rjmp	.+12     	; 0xa48 <rf12_txdata+0x50>
 a3c:	d9 df       	rcall	.-78     	; 0x9f0 <rf12_ready>
 a3e:	29 91       	ld	r18, Y+
 a40:	82 2f       	mov	r24, r18
 a42:	90 e0       	ldi	r25, 0x00	; 0
 a44:	98 6b       	ori	r25, 0xB8	; 184
 a46:	50 df       	rcall	.-352    	; 0x8e8 <rf12_trans>
 a48:	8c 2f       	mov	r24, r28
 a4a:	81 1b       	sub	r24, r17
 a4c:	80 17       	cp	r24, r16
 a4e:	b0 f3       	brcs	.-20     	; 0xa3c <rf12_txdata+0x44>
 a50:	cf df       	rcall	.-98     	; 0x9f0 <rf12_ready>
 a52:	88 e0       	ldi	r24, 0x08	; 8
 a54:	92 e8       	ldi	r25, 0x82	; 130
 a56:	df 91       	pop	r29
 a58:	cf 91       	pop	r28
 a5a:	1f 91       	pop	r17
 a5c:	0f 91       	pop	r16
 a5e:	ff 90       	pop	r15
 a60:	43 cf       	rjmp	.-378    	; 0x8e8 <rf12_trans>

00000a62 <rf12_rxdata>:
 a62:	ff 92       	push	r15
 a64:	0f 93       	push	r16
 a66:	1f 93       	push	r17
 a68:	cf 93       	push	r28
 a6a:	df 93       	push	r29
 a6c:	18 2f       	mov	r17, r24
 a6e:	f9 2e       	mov	r15, r25
 a70:	06 2f       	mov	r16, r22
 a72:	88 ec       	ldi	r24, 0xC8	; 200
 a74:	92 e8       	ldi	r25, 0x82	; 130
 a76:	38 df       	rcall	.-400    	; 0x8e8 <rf12_trans>
 a78:	81 e8       	ldi	r24, 0x81	; 129
 a7a:	9a ec       	ldi	r25, 0xCA	; 202
 a7c:	35 df       	rcall	.-406    	; 0x8e8 <rf12_trans>
 a7e:	83 e8       	ldi	r24, 0x83	; 131
 a80:	9a ec       	ldi	r25, 0xCA	; 202
 a82:	32 df       	rcall	.-412    	; 0x8e8 <rf12_trans>
 a84:	c1 2f       	mov	r28, r17
 a86:	df 2d       	mov	r29, r15
 a88:	05 c0       	rjmp	.+10     	; 0xa94 <rf12_rxdata+0x32>
 a8a:	b2 df       	rcall	.-156    	; 0x9f0 <rf12_ready>
 a8c:	80 e0       	ldi	r24, 0x00	; 0
 a8e:	90 eb       	ldi	r25, 0xB0	; 176
 a90:	2b df       	rcall	.-426    	; 0x8e8 <rf12_trans>
 a92:	89 93       	st	Y+, r24
 a94:	8c 2f       	mov	r24, r28
 a96:	81 1b       	sub	r24, r17
 a98:	80 17       	cp	r24, r16
 a9a:	b8 f3       	brcs	.-18     	; 0xa8a <rf12_rxdata+0x28>
 a9c:	88 e0       	ldi	r24, 0x08	; 8
 a9e:	92 e8       	ldi	r25, 0x82	; 130
 aa0:	df 91       	pop	r29
 aa2:	cf 91       	pop	r28
 aa4:	1f 91       	pop	r17
 aa6:	0f 91       	pop	r16
 aa8:	ff 90       	pop	r15
 aaa:	1e cf       	rjmp	.-452    	; 0x8e8 <rf12_trans>

00000aac <main>:
 aac:	cf 93       	push	r28
 aae:	df 93       	push	r29
 ab0:	cd b7       	in	r28, 0x3d	; 61
 ab2:	de b7       	in	r29, 0x3e	; 62
 ab4:	61 97       	sbiw	r28, 0x11	; 17
 ab6:	0f b6       	in	r0, 0x3f	; 63
 ab8:	f8 94       	cli
 aba:	de bf       	out	0x3e, r29	; 62
 abc:	0f be       	out	0x3f, r0	; 63
 abe:	cd bf       	out	0x3d, r28	; 61
 ac0:	14 ba       	out	0x14, r1	; 20
 ac2:	8f ef       	ldi	r24, 0xFF	; 255
 ac4:	85 bb       	out	0x15, r24	; 21
 ac6:	b9 9a       	sbi	0x17, 1	; 23
 ac8:	19 82       	std	Y+1, r1	; 0x01
 aca:	1a 82       	std	Y+2, r1	; 0x02
 acc:	1b 82       	std	Y+3, r1	; 0x03
 ace:	1c 82       	std	Y+4, r1	; 0x04
 ad0:	fe 01       	movw	r30, r28
 ad2:	35 96       	adiw	r30, 0x05	; 5
 ad4:	87 e0       	ldi	r24, 0x07	; 7
 ad6:	df 01       	movw	r26, r30
 ad8:	1d 92       	st	X+, r1
 ada:	8a 95       	dec	r24
 adc:	e9 f7       	brne	.-6      	; 0xad8 <main+0x2c>
 ade:	19 8a       	std	Y+17, r1	; 0x11
 ae0:	18 8a       	std	Y+16, r1	; 0x10
 ae2:	1a df       	rcall	.-460    	; 0x918 <rf12_init>
 ae4:	80 e2       	ldi	r24, 0x20	; 32
 ae6:	96 e0       	ldi	r25, 0x06	; 6
 ae8:	4c df       	rcall	.-360    	; 0x982 <rf12_setfreq>
 aea:	44 e0       	ldi	r20, 0x04	; 4
 aec:	61 e0       	ldi	r22, 0x01	; 1
 aee:	84 e0       	ldi	r24, 0x04	; 4
 af0:	35 df       	rcall	.-406    	; 0x95c <rf12_setbandwidth>
 af2:	80 e0       	ldi	r24, 0x00	; 0
 af4:	9b e4       	ldi	r25, 0x4B	; 75
 af6:	53 df       	rcall	.-346    	; 0x99e <rf12_setbaud>
 af8:	66 e0       	ldi	r22, 0x06	; 6
 afa:	80 e0       	ldi	r24, 0x00	; 0
 afc:	6e df       	rcall	.-292    	; 0x9da <rf12_setpower>
 afe:	60 e0       	ldi	r22, 0x00	; 0
 b00:	70 e0       	ldi	r23, 0x00	; 0
 b02:	81 e0       	ldi	r24, 0x01	; 1
 b04:	c6 db       	rcall	.-2164   	; 0x292 <DS18X20_start_meas>
 b06:	60 e6       	ldi	r22, 0x60	; 96
 b08:	70 e0       	ldi	r23, 0x00	; 0
 b0a:	ee 24       	eor	r14, r14
 b0c:	e3 94       	inc	r14
 b0e:	f1 2c       	mov	r15, r1
 b10:	ec 0e       	add	r14, r28
 b12:	fd 1e       	adc	r15, r29
 b14:	c7 01       	movw	r24, r14
 b16:	d6 d0       	rcall	.+428    	; 0xcc4 <strcpy>
 b18:	00 e0       	ldi	r16, 0x00	; 0
 b1a:	10 e0       	ldi	r17, 0x00	; 0
 b1c:	be 2c       	mov	r11, r14
 b1e:	af 2c       	mov	r10, r15
 b20:	9c e2       	ldi	r25, 0x2C	; 44
 b22:	e9 2e       	mov	r14, r25
 b24:	ff 24       	eor	r15, r15
 b26:	f3 94       	inc	r15
 b28:	28 ee       	ldi	r18, 0xE8	; 232
 b2a:	c2 2e       	mov	r12, r18
 b2c:	23 e0       	ldi	r18, 0x03	; 3
 b2e:	d2 2e       	mov	r13, r18
 b30:	83 b3       	in	r24, 0x13	; 19
 b32:	8d 33       	cpi	r24, 0x3D	; 61
 b34:	31 f0       	breq	.+12     	; 0xb42 <main+0x96>
 b36:	83 b3       	in	r24, 0x13	; 19
 b38:	8e 33       	cpi	r24, 0x3E	; 62
 b3a:	19 f0       	breq	.+6      	; 0xb42 <main+0x96>
 b3c:	83 b3       	in	r24, 0x13	; 19
 b3e:	8c 33       	cpi	r24, 0x3C	; 60
 b40:	a9 f4       	brne	.+42     	; 0xb6c <main+0xc0>
 b42:	83 b3       	in	r24, 0x13	; 19
 b44:	40 e1       	ldi	r20, 0x10	; 16
 b46:	50 e0       	ldi	r21, 0x00	; 0
 b48:	be 01       	movw	r22, r28
 b4a:	60 5f       	subi	r22, 0xF0	; 240
 b4c:	7f 4f       	sbci	r23, 0xFF	; 255
 b4e:	90 e0       	ldi	r25, 0x00	; 0
 b50:	d0 d0       	rcall	.+416    	; 0xcf2 <itoa>
 b52:	6f e6       	ldi	r22, 0x6F	; 111
 b54:	70 e0       	ldi	r23, 0x00	; 0
 b56:	8b 2d       	mov	r24, r11
 b58:	9a 2d       	mov	r25, r10
 b5a:	a9 d0       	rcall	.+338    	; 0xcae <strcat>
 b5c:	42 e0       	ldi	r20, 0x02	; 2
 b5e:	50 e0       	ldi	r21, 0x00	; 0
 b60:	be 01       	movw	r22, r28
 b62:	60 5f       	subi	r22, 0xF0	; 240
 b64:	7f 4f       	sbci	r23, 0xFF	; 255
 b66:	8b 2d       	mov	r24, r11
 b68:	9a 2d       	mov	r25, r10
 b6a:	b3 d0       	rcall	.+358    	; 0xcd2 <strncat>
 b6c:	c8 01       	movw	r24, r16
 b6e:	b7 01       	movw	r22, r14
 b70:	3a d0       	rcall	.+116    	; 0xbe6 <__udivmodhi4>
 b72:	89 2b       	or	r24, r25
 b74:	a1 f4       	brne	.+40     	; 0xb9e <main+0xf2>
 b76:	ab db       	rcall	.-2218   	; 0x2ce <DS18X20_conversion_in_progress>
 b78:	81 11       	cpse	r24, r1
 b7a:	11 c0       	rjmp	.+34     	; 0xb9e <main+0xf2>
 b7c:	be 01       	movw	r22, r28
 b7e:	64 5f       	subi	r22, 0xF4	; 244
 b80:	7f 4f       	sbci	r23, 0xFF	; 255
 b82:	88 e2       	ldi	r24, 0x28	; 40
 b84:	c0 dc       	rcall	.-1664   	; 0x506 <DS18X20_read_maxres_single>
 b86:	60 e0       	ldi	r22, 0x00	; 0
 b88:	70 e0       	ldi	r23, 0x00	; 0
 b8a:	81 e0       	ldi	r24, 0x01	; 1
 b8c:	82 db       	rcall	.-2300   	; 0x292 <DS18X20_start_meas>
 b8e:	6c 85       	ldd	r22, Y+12	; 0x0c
 b90:	7d 85       	ldd	r23, Y+13	; 0x0d
 b92:	8e 85       	ldd	r24, Y+14	; 0x0e
 b94:	9f 85       	ldd	r25, Y+15	; 0x0f
 b96:	2a e0       	ldi	r18, 0x0A	; 10
 b98:	4b 2d       	mov	r20, r11
 b9a:	5a 2d       	mov	r21, r10
 b9c:	e5 dc       	rcall	.-1590   	; 0x568 <DS18X20_format_from_maxres>
 b9e:	c8 01       	movw	r24, r16
 ba0:	01 96       	adiw	r24, 0x01	; 1
 ba2:	b6 01       	movw	r22, r12
 ba4:	20 d0       	rcall	.+64     	; 0xbe6 <__udivmodhi4>
 ba6:	8c 01       	movw	r16, r24
 ba8:	ef ec       	ldi	r30, 0xCF	; 207
 baa:	f7 e0       	ldi	r31, 0x07	; 7
 bac:	31 97       	sbiw	r30, 0x01	; 1
 bae:	f1 f7       	brne	.-4      	; 0xbac <main+0x100>
 bb0:	00 c0       	rjmp	.+0      	; 0xbb2 <main+0x106>
 bb2:	00 00       	nop
 bb4:	8b 2d       	mov	r24, r11
 bb6:	9a 2d       	mov	r25, r10
 bb8:	95 de       	rcall	.-726    	; 0x8e4 <send>
 bba:	8a e0       	ldi	r24, 0x0A	; 10
 bbc:	af ec       	ldi	r26, 0xCF	; 207
 bbe:	b7 e0       	ldi	r27, 0x07	; 7
 bc0:	11 97       	sbiw	r26, 0x01	; 1
 bc2:	f1 f7       	brne	.-4      	; 0xbc0 <main+0x114>
 bc4:	00 c0       	rjmp	.+0      	; 0xbc6 <main+0x11a>
 bc6:	00 00       	nop
 bc8:	81 50       	subi	r24, 0x01	; 1
 bca:	c1 f7       	brne	.-16     	; 0xbbc <main+0x110>
 bcc:	b1 cf       	rjmp	.-158    	; 0xb30 <main+0x84>

00000bce <__umulhisi3>:
 bce:	a2 9f       	mul	r26, r18
 bd0:	b0 01       	movw	r22, r0
 bd2:	b3 9f       	mul	r27, r19
 bd4:	c0 01       	movw	r24, r0
 bd6:	a3 9f       	mul	r26, r19
 bd8:	01 d0       	rcall	.+2      	; 0xbdc <__umulhisi3+0xe>
 bda:	b2 9f       	mul	r27, r18
 bdc:	70 0d       	add	r23, r0
 bde:	81 1d       	adc	r24, r1
 be0:	11 24       	eor	r1, r1
 be2:	91 1d       	adc	r25, r1
 be4:	08 95       	ret

00000be6 <__udivmodhi4>:
 be6:	aa 1b       	sub	r26, r26
 be8:	bb 1b       	sub	r27, r27
 bea:	51 e1       	ldi	r21, 0x11	; 17
 bec:	07 c0       	rjmp	.+14     	; 0xbfc <__udivmodhi4_ep>

00000bee <__udivmodhi4_loop>:
 bee:	aa 1f       	adc	r26, r26
 bf0:	bb 1f       	adc	r27, r27
 bf2:	a6 17       	cp	r26, r22
 bf4:	b7 07       	cpc	r27, r23
 bf6:	10 f0       	brcs	.+4      	; 0xbfc <__udivmodhi4_ep>
 bf8:	a6 1b       	sub	r26, r22
 bfa:	b7 0b       	sbc	r27, r23

00000bfc <__udivmodhi4_ep>:
 bfc:	88 1f       	adc	r24, r24
 bfe:	99 1f       	adc	r25, r25
 c00:	5a 95       	dec	r21
 c02:	a9 f7       	brne	.-22     	; 0xbee <__udivmodhi4_loop>
 c04:	80 95       	com	r24
 c06:	90 95       	com	r25
 c08:	bc 01       	movw	r22, r24
 c0a:	cd 01       	movw	r24, r26
 c0c:	08 95       	ret

00000c0e <__divmodhi4>:
 c0e:	97 fb       	bst	r25, 7
 c10:	07 2e       	mov	r0, r23
 c12:	16 f4       	brtc	.+4      	; 0xc18 <__divmodhi4+0xa>
 c14:	00 94       	com	r0
 c16:	06 d0       	rcall	.+12     	; 0xc24 <__divmodhi4_neg1>
 c18:	77 fd       	sbrc	r23, 7
 c1a:	08 d0       	rcall	.+16     	; 0xc2c <__divmodhi4_neg2>
 c1c:	e4 df       	rcall	.-56     	; 0xbe6 <__udivmodhi4>
 c1e:	07 fc       	sbrc	r0, 7
 c20:	05 d0       	rcall	.+10     	; 0xc2c <__divmodhi4_neg2>
 c22:	3e f4       	brtc	.+14     	; 0xc32 <__divmodhi4_exit>

00000c24 <__divmodhi4_neg1>:
 c24:	90 95       	com	r25
 c26:	81 95       	neg	r24
 c28:	9f 4f       	sbci	r25, 0xFF	; 255
 c2a:	08 95       	ret

00000c2c <__divmodhi4_neg2>:
 c2c:	70 95       	com	r23
 c2e:	61 95       	neg	r22
 c30:	7f 4f       	sbci	r23, 0xFF	; 255

00000c32 <__divmodhi4_exit>:
 c32:	08 95       	ret

00000c34 <__udivmodsi4>:
 c34:	a1 e2       	ldi	r26, 0x21	; 33
 c36:	1a 2e       	mov	r1, r26
 c38:	aa 1b       	sub	r26, r26
 c3a:	bb 1b       	sub	r27, r27
 c3c:	fd 01       	movw	r30, r26
 c3e:	0d c0       	rjmp	.+26     	; 0xc5a <__udivmodsi4_ep>

00000c40 <__udivmodsi4_loop>:
 c40:	aa 1f       	adc	r26, r26
 c42:	bb 1f       	adc	r27, r27
 c44:	ee 1f       	adc	r30, r30
 c46:	ff 1f       	adc	r31, r31
 c48:	a2 17       	cp	r26, r18
 c4a:	b3 07       	cpc	r27, r19
 c4c:	e4 07       	cpc	r30, r20
 c4e:	f5 07       	cpc	r31, r21
 c50:	20 f0       	brcs	.+8      	; 0xc5a <__udivmodsi4_ep>
 c52:	a2 1b       	sub	r26, r18
 c54:	b3 0b       	sbc	r27, r19
 c56:	e4 0b       	sbc	r30, r20
 c58:	f5 0b       	sbc	r31, r21

00000c5a <__udivmodsi4_ep>:
 c5a:	66 1f       	adc	r22, r22
 c5c:	77 1f       	adc	r23, r23
 c5e:	88 1f       	adc	r24, r24
 c60:	99 1f       	adc	r25, r25
 c62:	1a 94       	dec	r1
 c64:	69 f7       	brne	.-38     	; 0xc40 <__udivmodsi4_loop>
 c66:	60 95       	com	r22
 c68:	70 95       	com	r23
 c6a:	80 95       	com	r24
 c6c:	90 95       	com	r25
 c6e:	9b 01       	movw	r18, r22
 c70:	ac 01       	movw	r20, r24
 c72:	bd 01       	movw	r22, r26
 c74:	cf 01       	movw	r24, r30
 c76:	08 95       	ret

00000c78 <__divmodsi4>:
 c78:	05 2e       	mov	r0, r21
 c7a:	97 fb       	bst	r25, 7
 c7c:	16 f4       	brtc	.+4      	; 0xc82 <__divmodsi4+0xa>
 c7e:	00 94       	com	r0
 c80:	06 d0       	rcall	.+12     	; 0xc8e <__divmodsi4_neg1>
 c82:	57 fd       	sbrc	r21, 7
 c84:	0c d0       	rcall	.+24     	; 0xc9e <__divmodsi4_neg2>
 c86:	d6 df       	rcall	.-84     	; 0xc34 <__udivmodsi4>
 c88:	07 fc       	sbrc	r0, 7
 c8a:	09 d0       	rcall	.+18     	; 0xc9e <__divmodsi4_neg2>
 c8c:	7e f4       	brtc	.+30     	; 0xcac <__divmodsi4_exit>

00000c8e <__divmodsi4_neg1>:
 c8e:	90 95       	com	r25
 c90:	80 95       	com	r24
 c92:	70 95       	com	r23
 c94:	61 95       	neg	r22
 c96:	7f 4f       	sbci	r23, 0xFF	; 255
 c98:	8f 4f       	sbci	r24, 0xFF	; 255
 c9a:	9f 4f       	sbci	r25, 0xFF	; 255
 c9c:	08 95       	ret

00000c9e <__divmodsi4_neg2>:
 c9e:	50 95       	com	r21
 ca0:	40 95       	com	r20
 ca2:	30 95       	com	r19
 ca4:	21 95       	neg	r18
 ca6:	3f 4f       	sbci	r19, 0xFF	; 255
 ca8:	4f 4f       	sbci	r20, 0xFF	; 255
 caa:	5f 4f       	sbci	r21, 0xFF	; 255

00000cac <__divmodsi4_exit>:
 cac:	08 95       	ret

00000cae <strcat>:
 cae:	fb 01       	movw	r30, r22
 cb0:	dc 01       	movw	r26, r24
 cb2:	0d 90       	ld	r0, X+
 cb4:	00 20       	and	r0, r0
 cb6:	e9 f7       	brne	.-6      	; 0xcb2 <strcat+0x4>
 cb8:	11 97       	sbiw	r26, 0x01	; 1
 cba:	01 90       	ld	r0, Z+
 cbc:	0d 92       	st	X+, r0
 cbe:	00 20       	and	r0, r0
 cc0:	e1 f7       	brne	.-8      	; 0xcba <strcat+0xc>
 cc2:	08 95       	ret

00000cc4 <strcpy>:
 cc4:	fb 01       	movw	r30, r22
 cc6:	dc 01       	movw	r26, r24
 cc8:	01 90       	ld	r0, Z+
 cca:	0d 92       	st	X+, r0
 ccc:	00 20       	and	r0, r0
 cce:	e1 f7       	brne	.-8      	; 0xcc8 <strcpy+0x4>
 cd0:	08 95       	ret

00000cd2 <strncat>:
 cd2:	fb 01       	movw	r30, r22
 cd4:	dc 01       	movw	r26, r24
 cd6:	0d 90       	ld	r0, X+
 cd8:	00 20       	and	r0, r0
 cda:	e9 f7       	brne	.-6      	; 0xcd6 <strncat+0x4>
 cdc:	11 97       	sbiw	r26, 0x01	; 1
 cde:	41 50       	subi	r20, 0x01	; 1
 ce0:	50 40       	sbci	r21, 0x00	; 0
 ce2:	28 f0       	brcs	.+10     	; 0xcee <strncat+0x1c>
 ce4:	01 90       	ld	r0, Z+
 ce6:	00 20       	and	r0, r0
 ce8:	0d 92       	st	X+, r0
 cea:	c9 f7       	brne	.-14     	; 0xcde <strncat+0xc>
 cec:	08 95       	ret
 cee:	1c 92       	st	X, r1
 cf0:	08 95       	ret

00000cf2 <itoa>:
 cf2:	fb 01       	movw	r30, r22
 cf4:	9f 01       	movw	r18, r30
 cf6:	e8 94       	clt
 cf8:	42 30       	cpi	r20, 0x02	; 2
 cfa:	bc f0       	brlt	.+46     	; 0xd2a <itoa+0x38>
 cfc:	45 32       	cpi	r20, 0x25	; 37
 cfe:	ac f4       	brge	.+42     	; 0xd2a <itoa+0x38>
 d00:	4a 30       	cpi	r20, 0x0A	; 10
 d02:	29 f4       	brne	.+10     	; 0xd0e <itoa+0x1c>
 d04:	97 fb       	bst	r25, 7
 d06:	1e f4       	brtc	.+6      	; 0xd0e <itoa+0x1c>
 d08:	90 95       	com	r25
 d0a:	81 95       	neg	r24
 d0c:	9f 4f       	sbci	r25, 0xFF	; 255
 d0e:	64 2f       	mov	r22, r20
 d10:	77 27       	eor	r23, r23
 d12:	69 df       	rcall	.-302    	; 0xbe6 <__udivmodhi4>
 d14:	80 5d       	subi	r24, 0xD0	; 208
 d16:	8a 33       	cpi	r24, 0x3A	; 58
 d18:	0c f0       	brlt	.+2      	; 0xd1c <itoa+0x2a>
 d1a:	89 5d       	subi	r24, 0xD9	; 217
 d1c:	81 93       	st	Z+, r24
 d1e:	cb 01       	movw	r24, r22
 d20:	00 97       	sbiw	r24, 0x00	; 0
 d22:	a9 f7       	brne	.-22     	; 0xd0e <itoa+0x1c>
 d24:	16 f4       	brtc	.+4      	; 0xd2a <itoa+0x38>
 d26:	5d e2       	ldi	r21, 0x2D	; 45
 d28:	51 93       	st	Z+, r21
 d2a:	10 82       	st	Z, r1
 d2c:	c9 01       	movw	r24, r18
 d2e:	00 c0       	rjmp	.+0      	; 0xd30 <strrev>

00000d30 <strrev>:
 d30:	dc 01       	movw	r26, r24
 d32:	fc 01       	movw	r30, r24
 d34:	67 2f       	mov	r22, r23
 d36:	71 91       	ld	r23, Z+
 d38:	77 23       	and	r23, r23
 d3a:	e1 f7       	brne	.-8      	; 0xd34 <strrev+0x4>
 d3c:	32 97       	sbiw	r30, 0x02	; 2
 d3e:	04 c0       	rjmp	.+8      	; 0xd48 <strrev+0x18>
 d40:	7c 91       	ld	r23, X
 d42:	6d 93       	st	X+, r22
 d44:	70 83       	st	Z, r23
 d46:	62 91       	ld	r22, -Z
 d48:	ae 17       	cp	r26, r30
 d4a:	bf 07       	cpc	r27, r31
 d4c:	c8 f3       	brcs	.-14     	; 0xd40 <strrev+0x10>
 d4e:	08 95       	ret

00000d50 <_exit>:
 d50:	f8 94       	cli

00000d52 <__stop_program>:
 d52:	ff cf       	rjmp	.-2      	; 0xd52 <__stop_program>
